
Final Project.elf:     file format elf32-avr

Sections:
Idx Name          Size      VMA       LMA       File off  Algn
  0 .data         00000098  00800200  00000c20  00000cb4  2**0
                  CONTENTS, ALLOC, LOAD, DATA
  1 .text         00000c20  00000000  00000000  00000094  2**1
                  CONTENTS, ALLOC, LOAD, READONLY, CODE
  2 .bss          0000001d  00800298  00800298  00000d4c  2**0
                  ALLOC
  3 .comment      00000030  00000000  00000000  00000d4c  2**0
                  CONTENTS, READONLY
  4 .note.gnu.avr.deviceinfo 00000040  00000000  00000000  00000d7c  2**2
                  CONTENTS, READONLY
  5 .debug_aranges 000000e0  00000000  00000000  00000dbc  2**0
                  CONTENTS, READONLY, DEBUGGING
  6 .debug_info   00001883  00000000  00000000  00000e9c  2**0
                  CONTENTS, READONLY, DEBUGGING
  7 .debug_abbrev 00000fe4  00000000  00000000  0000271f  2**0
                  CONTENTS, READONLY, DEBUGGING
  8 .debug_line   00000aa3  00000000  00000000  00003703  2**0
                  CONTENTS, READONLY, DEBUGGING
  9 .debug_frame  000001a8  00000000  00000000  000041a8  2**2
                  CONTENTS, READONLY, DEBUGGING
 10 .debug_str    000006dd  00000000  00000000  00004350  2**0
                  CONTENTS, READONLY, DEBUGGING
 11 .debug_loc    000008cd  00000000  00000000  00004a2d  2**0
                  CONTENTS, READONLY, DEBUGGING
 12 .debug_ranges 000000a8  00000000  00000000  000052fa  2**0
                  CONTENTS, READONLY, DEBUGGING

Disassembly of section .text:

00000000 <__vectors>:
   0:	71 c0       	rjmp	.+226    	; 0xe4 <__ctors_end>
   2:	00 00       	nop
   4:	8e c0       	rjmp	.+284    	; 0x122 <__bad_interrupt>
   6:	00 00       	nop
   8:	8c c0       	rjmp	.+280    	; 0x122 <__bad_interrupt>
   a:	00 00       	nop
   c:	8a c0       	rjmp	.+276    	; 0x122 <__bad_interrupt>
   e:	00 00       	nop
  10:	88 c0       	rjmp	.+272    	; 0x122 <__bad_interrupt>
  12:	00 00       	nop
  14:	86 c0       	rjmp	.+268    	; 0x122 <__bad_interrupt>
  16:	00 00       	nop
  18:	84 c0       	rjmp	.+264    	; 0x122 <__bad_interrupt>
  1a:	00 00       	nop
  1c:	82 c0       	rjmp	.+260    	; 0x122 <__bad_interrupt>
  1e:	00 00       	nop
  20:	80 c0       	rjmp	.+256    	; 0x122 <__bad_interrupt>
  22:	00 00       	nop
  24:	7e c0       	rjmp	.+252    	; 0x122 <__bad_interrupt>
  26:	00 00       	nop
  28:	7c c0       	rjmp	.+248    	; 0x122 <__bad_interrupt>
  2a:	00 00       	nop
  2c:	7a c0       	rjmp	.+244    	; 0x122 <__bad_interrupt>
  2e:	00 00       	nop
  30:	78 c0       	rjmp	.+240    	; 0x122 <__bad_interrupt>
  32:	00 00       	nop
  34:	76 c0       	rjmp	.+236    	; 0x122 <__bad_interrupt>
  36:	00 00       	nop
  38:	74 c0       	rjmp	.+232    	; 0x122 <__bad_interrupt>
  3a:	00 00       	nop
  3c:	72 c0       	rjmp	.+228    	; 0x122 <__bad_interrupt>
  3e:	00 00       	nop
  40:	70 c0       	rjmp	.+224    	; 0x122 <__bad_interrupt>
  42:	00 00       	nop
  44:	6e c0       	rjmp	.+220    	; 0x122 <__bad_interrupt>
  46:	00 00       	nop
  48:	6c c0       	rjmp	.+216    	; 0x122 <__bad_interrupt>
  4a:	00 00       	nop
  4c:	6a c0       	rjmp	.+212    	; 0x122 <__bad_interrupt>
  4e:	00 00       	nop
  50:	68 c0       	rjmp	.+208    	; 0x122 <__bad_interrupt>
  52:	00 00       	nop
  54:	66 c0       	rjmp	.+204    	; 0x122 <__bad_interrupt>
  56:	00 00       	nop
  58:	64 c0       	rjmp	.+200    	; 0x122 <__bad_interrupt>
  5a:	00 00       	nop
  5c:	62 c0       	rjmp	.+196    	; 0x122 <__bad_interrupt>
  5e:	00 00       	nop
  60:	60 c0       	rjmp	.+192    	; 0x122 <__bad_interrupt>
  62:	00 00       	nop
  64:	5e c0       	rjmp	.+188    	; 0x122 <__bad_interrupt>
  66:	00 00       	nop
  68:	5c c0       	rjmp	.+184    	; 0x122 <__bad_interrupt>
  6a:	00 00       	nop
  6c:	5a c0       	rjmp	.+180    	; 0x122 <__bad_interrupt>
  6e:	00 00       	nop
  70:	58 c0       	rjmp	.+176    	; 0x122 <__bad_interrupt>
  72:	00 00       	nop
  74:	56 c0       	rjmp	.+172    	; 0x122 <__bad_interrupt>
  76:	00 00       	nop
  78:	54 c0       	rjmp	.+168    	; 0x122 <__bad_interrupt>
  7a:	00 00       	nop
  7c:	52 c0       	rjmp	.+164    	; 0x122 <__bad_interrupt>
  7e:	00 00       	nop
  80:	50 c0       	rjmp	.+160    	; 0x122 <__bad_interrupt>
  82:	00 00       	nop
  84:	4e c0       	rjmp	.+156    	; 0x122 <__bad_interrupt>
  86:	00 00       	nop
  88:	4c c0       	rjmp	.+152    	; 0x122 <__bad_interrupt>
  8a:	00 00       	nop
  8c:	4a c0       	rjmp	.+148    	; 0x122 <__bad_interrupt>
  8e:	00 00       	nop
  90:	48 c0       	rjmp	.+144    	; 0x122 <__bad_interrupt>
  92:	00 00       	nop
  94:	46 c0       	rjmp	.+140    	; 0x122 <__bad_interrupt>
  96:	00 00       	nop
  98:	44 c0       	rjmp	.+136    	; 0x122 <__bad_interrupt>
  9a:	00 00       	nop
  9c:	42 c0       	rjmp	.+132    	; 0x122 <__bad_interrupt>
  9e:	00 00       	nop
  a0:	40 c0       	rjmp	.+128    	; 0x122 <__bad_interrupt>
  a2:	00 00       	nop
  a4:	3e c0       	rjmp	.+124    	; 0x122 <__bad_interrupt>
  a6:	00 00       	nop
  a8:	3c c0       	rjmp	.+120    	; 0x122 <__bad_interrupt>
  aa:	00 00       	nop
  ac:	3a c0       	rjmp	.+116    	; 0x122 <__bad_interrupt>
  ae:	00 00       	nop
  b0:	38 c0       	rjmp	.+112    	; 0x122 <__bad_interrupt>
  b2:	00 00       	nop
  b4:	36 c0       	rjmp	.+108    	; 0x122 <__bad_interrupt>
  b6:	00 00       	nop
  b8:	34 c0       	rjmp	.+104    	; 0x122 <__bad_interrupt>
  ba:	00 00       	nop
  bc:	32 c0       	rjmp	.+100    	; 0x122 <__bad_interrupt>
  be:	00 00       	nop
  c0:	30 c0       	rjmp	.+96     	; 0x122 <__bad_interrupt>
  c2:	00 00       	nop
  c4:	2e c0       	rjmp	.+92     	; 0x122 <__bad_interrupt>
  c6:	00 00       	nop
  c8:	2c c0       	rjmp	.+88     	; 0x122 <__bad_interrupt>
  ca:	00 00       	nop
  cc:	2a c0       	rjmp	.+84     	; 0x122 <__bad_interrupt>
  ce:	00 00       	nop
  d0:	28 c0       	rjmp	.+80     	; 0x122 <__bad_interrupt>
  d2:	00 00       	nop
  d4:	26 c0       	rjmp	.+76     	; 0x122 <__bad_interrupt>
  d6:	00 00       	nop
  d8:	9b c3       	rjmp	.+1846   	; 0x810 <__vector_54>
  da:	00 00       	nop
  dc:	22 c0       	rjmp	.+68     	; 0x122 <__bad_interrupt>
  de:	00 00       	nop
  e0:	20 c0       	rjmp	.+64     	; 0x122 <__bad_interrupt>
	...

000000e4 <__ctors_end>:
  e4:	11 24       	eor	r1, r1
  e6:	1f be       	out	0x3f, r1	; 63
  e8:	cf ef       	ldi	r28, 0xFF	; 255
  ea:	d1 e2       	ldi	r29, 0x21	; 33
  ec:	de bf       	out	0x3e, r29	; 62
  ee:	cd bf       	out	0x3d, r28	; 61
  f0:	00 e0       	ldi	r16, 0x00	; 0
  f2:	0c bf       	out	0x3c, r16	; 60

000000f4 <__do_copy_data>:
  f4:	12 e0       	ldi	r17, 0x02	; 2
  f6:	a0 e0       	ldi	r26, 0x00	; 0
  f8:	b2 e0       	ldi	r27, 0x02	; 2
  fa:	e0 e2       	ldi	r30, 0x20	; 32
  fc:	fc e0       	ldi	r31, 0x0C	; 12
  fe:	00 e0       	ldi	r16, 0x00	; 0
 100:	0b bf       	out	0x3b, r16	; 59
 102:	02 c0       	rjmp	.+4      	; 0x108 <__do_copy_data+0x14>
 104:	07 90       	elpm	r0, Z+
 106:	0d 92       	st	X+, r0
 108:	a8 39       	cpi	r26, 0x98	; 152
 10a:	b1 07       	cpc	r27, r17
 10c:	d9 f7       	brne	.-10     	; 0x104 <__do_copy_data+0x10>

0000010e <__do_clear_bss>:
 10e:	22 e0       	ldi	r18, 0x02	; 2
 110:	a8 e9       	ldi	r26, 0x98	; 152
 112:	b2 e0       	ldi	r27, 0x02	; 2
 114:	01 c0       	rjmp	.+2      	; 0x118 <.do_clear_bss_start>

00000116 <.do_clear_bss_loop>:
 116:	1d 92       	st	X+, r1

00000118 <.do_clear_bss_start>:
 118:	a5 3b       	cpi	r26, 0xB5	; 181
 11a:	b2 07       	cpc	r27, r18
 11c:	e1 f7       	brne	.-8      	; 0x116 <.do_clear_bss_loop>
 11e:	d0 d0       	rcall	.+416    	; 0x2c0 <main>
 120:	7d c5       	rjmp	.+2810   	; 0xc1c <_exit>

00000122 <__bad_interrupt>:
 122:	6e cf       	rjmp	.-292    	; 0x0 <__vectors>

00000124 <dc_init>:


void dc_init(void)
{
	//MOTOR A
	TCCR3A = 0x80; //Clear OC3A on compare match (8), fast PWM (14)
 124:	e0 e9       	ldi	r30, 0x90	; 144
 126:	f0 e0       	ldi	r31, 0x00	; 0
 128:	90 e8       	ldi	r25, 0x80	; 128
 12a:	90 83       	st	Z, r25
	TCCR3A |= (1<<WGM31);
 12c:	80 81       	ld	r24, Z
 12e:	82 60       	ori	r24, 0x02	; 2
 130:	80 83       	st	Z, r24
	TCCR3B |= (1<<WGM33)|(1<<WGM32)|(1<<CS32); //256 prescaler, frequency change thing pwm
 132:	e1 e9       	ldi	r30, 0x91	; 145
 134:	f0 e0       	ldi	r31, 0x00	; 0
 136:	80 81       	ld	r24, Z
 138:	8c 61       	ori	r24, 0x1C	; 28
 13a:	80 83       	st	Z, r24
	//TCCR5A = 0x80; //Clear OC3A on compare match (8), fast PWM (14)
	//TCCR5A |= (1<<WGM31);
	//TCCR5B |= (1<<WGM33)|(1<<WGM32)|(1<<CS32); //256 prescaler, frequency change thing pwm
	
	//MOTOR C
	TCCR1A = 0x80; //Clear OC3A on compare match (8), fast PWM (14)
 13c:	e0 e8       	ldi	r30, 0x80	; 128
 13e:	f0 e0       	ldi	r31, 0x00	; 0
 140:	90 83       	st	Z, r25
	TCCR1A |= (1<<WGM31);
 142:	80 81       	ld	r24, Z
 144:	82 60       	ori	r24, 0x02	; 2
 146:	80 83       	st	Z, r24
	TCCR1B |= (1<<WGM33)|(1<<WGM32)|(1<<CS32); //256 prescaler, frequency change thing pwm
 148:	e1 e8       	ldi	r30, 0x81	; 129
 14a:	f0 e0       	ldi	r31, 0x00	; 0
 14c:	80 81       	ld	r24, Z
 14e:	8c 61       	ori	r24, 0x1C	; 28
 150:	80 83       	st	Z, r24
 152:	08 95       	ret

00000154 <fast_PWM>:
}

//Fast PWM Function For DC motor
void fast_PWM(char motor, uint8_t duty_cycle, uint32_t freq)
{
 154:	0f 93       	push	r16
 156:	1f 93       	push	r17
 158:	cf 93       	push	r28
 15a:	c6 2f       	mov	r28, r22
	uint16_t Freq_change;
	if (motor == 'A')
 15c:	81 34       	cpi	r24, 0x41	; 65
 15e:	31 f5       	brne	.+76     	; 0x1ac <fast_PWM+0x58>
	{
		uint16_t num;  								//some value
		TCCR3A |= (1<<COM3A1);  					//Enable this part
 160:	e0 e9       	ldi	r30, 0x90	; 144
 162:	f0 e0       	ldi	r31, 0x00	; 0
 164:	80 81       	ld	r24, Z
 166:	80 68       	ori	r24, 0x80	; 128
 168:	80 83       	st	Z, r24
		//how to change frequency????
		Freq_change = (F_CPU/(freq * 256)) - 1;
 16a:	54 2f       	mov	r21, r20
 16c:	43 2f       	mov	r20, r19
 16e:	32 2f       	mov	r19, r18
 170:	22 27       	eor	r18, r18
 172:	60 e0       	ldi	r22, 0x00	; 0
 174:	74 e2       	ldi	r23, 0x24	; 36
 176:	84 ef       	ldi	r24, 0xF4	; 244
 178:	90 e0       	ldi	r25, 0x00	; 0
 17a:	15 d5       	rcall	.+2602   	; 0xba6 <__udivmodsi4>
 17c:	d9 01       	movw	r26, r18
 17e:	11 97       	sbiw	r26, 0x01	; 1
		ICR3 = Freq_change;
 180:	b0 93 97 00 	sts	0x0097, r27	; 0x800097 <__TEXT_REGION_LENGTH__+0x700097>
 184:	a0 93 96 00 	sts	0x0096, r26	; 0x800096 <__TEXT_REGION_LENGTH__+0x700096>
		
		num = ((uint32_t) duty_cycle * Freq_change)/100;   //calculate the number
 188:	2c 2f       	mov	r18, r28
 18a:	30 e0       	ldi	r19, 0x00	; 0
 18c:	2e d5       	rcall	.+2652   	; 0xbea <__umulhisi3>
 18e:	24 e6       	ldi	r18, 0x64	; 100
 190:	30 e0       	ldi	r19, 0x00	; 0
 192:	40 e0       	ldi	r20, 0x00	; 0
 194:	50 e0       	ldi	r21, 0x00	; 0
 196:	07 d5       	rcall	.+2574   	; 0xba6 <__udivmodsi4>
		OCR3A = num; 		//output the number to PORTE.6
 198:	30 93 99 00 	sts	0x0099, r19	; 0x800099 <__TEXT_REGION_LENGTH__+0x700099>
 19c:	20 93 98 00 	sts	0x0098, r18	; 0x800098 <__TEXT_REGION_LENGTH__+0x700098>

		TCCR3B |= (1<<CS32); 						//Actually compare the OCR to the CS
 1a0:	e1 e9       	ldi	r30, 0x91	; 145
 1a2:	f0 e0       	ldi	r31, 0x00	; 0
 1a4:	80 81       	ld	r24, Z
 1a6:	84 60       	ori	r24, 0x04	; 4
 1a8:	80 83       	st	Z, r24
 1aa:	76 c0       	rjmp	.+236    	; 0x298 <fast_PWM+0x144>
		//num = ((uint32_t) duty_cycle * Freq_change)/100;   //calculate the number
		//OCR3C = num; 		//output the number to PORTE.6
//
		//TCCR5B |= (1<<CS42); 						//Actually compare the OCR to the CS
	//}
	if (motor == 'C')
 1ac:	83 34       	cpi	r24, 0x43	; 67
 1ae:	31 f5       	brne	.+76     	; 0x1fc <fast_PWM+0xa8>
	{
		uint16_t num;  								//some value
		TCCR1A |= (1<<COM1A1);  					//Enable this part
 1b0:	e0 e8       	ldi	r30, 0x80	; 128
 1b2:	f0 e0       	ldi	r31, 0x00	; 0
 1b4:	80 81       	ld	r24, Z
 1b6:	80 68       	ori	r24, 0x80	; 128
 1b8:	80 83       	st	Z, r24
		//how to change frequency????
		Freq_change = (F_CPU/(freq * 256)) - 1;
 1ba:	54 2f       	mov	r21, r20
 1bc:	43 2f       	mov	r20, r19
 1be:	32 2f       	mov	r19, r18
 1c0:	22 27       	eor	r18, r18
 1c2:	60 e0       	ldi	r22, 0x00	; 0
 1c4:	74 e2       	ldi	r23, 0x24	; 36
 1c6:	84 ef       	ldi	r24, 0xF4	; 244
 1c8:	90 e0       	ldi	r25, 0x00	; 0
 1ca:	ed d4       	rcall	.+2522   	; 0xba6 <__udivmodsi4>
 1cc:	d9 01       	movw	r26, r18
 1ce:	11 97       	sbiw	r26, 0x01	; 1
		ICR1 = Freq_change;
 1d0:	b0 93 87 00 	sts	0x0087, r27	; 0x800087 <__TEXT_REGION_LENGTH__+0x700087>
 1d4:	a0 93 86 00 	sts	0x0086, r26	; 0x800086 <__TEXT_REGION_LENGTH__+0x700086>
		
		num = ((uint32_t) duty_cycle * Freq_change)/100;   //calculate the number
 1d8:	2c 2f       	mov	r18, r28
 1da:	30 e0       	ldi	r19, 0x00	; 0
 1dc:	06 d5       	rcall	.+2572   	; 0xbea <__umulhisi3>
 1de:	24 e6       	ldi	r18, 0x64	; 100
 1e0:	30 e0       	ldi	r19, 0x00	; 0
 1e2:	40 e0       	ldi	r20, 0x00	; 0
 1e4:	50 e0       	ldi	r21, 0x00	; 0
 1e6:	df d4       	rcall	.+2494   	; 0xba6 <__udivmodsi4>
		OCR1A = num; 		//output the number to PORTE.6
 1e8:	30 93 89 00 	sts	0x0089, r19	; 0x800089 <__TEXT_REGION_LENGTH__+0x700089>
 1ec:	20 93 88 00 	sts	0x0088, r18	; 0x800088 <__TEXT_REGION_LENGTH__+0x700088>

		TCCR1B |= (1<<CS12); 						//Actually compare the OCR to the CS
 1f0:	e1 e8       	ldi	r30, 0x81	; 129
 1f2:	f0 e0       	ldi	r31, 0x00	; 0
 1f4:	80 81       	ld	r24, Z
 1f6:	84 60       	ori	r24, 0x04	; 4
 1f8:	80 83       	st	Z, r24
 1fa:	4e c0       	rjmp	.+156    	; 0x298 <fast_PWM+0x144>
	}
	
	if (motor == 'D')
 1fc:	84 34       	cpi	r24, 0x44	; 68
 1fe:	09 f0       	breq	.+2      	; 0x202 <fast_PWM+0xae>
 200:	4b c0       	rjmp	.+150    	; 0x298 <fast_PWM+0x144>
	{
		//FIRST MOTOR
		uint16_t num;  								//some value
		TCCR3A |= (1<<COM3A1);  					//Enable this part
 202:	e0 e9       	ldi	r30, 0x90	; 144
 204:	f0 e0       	ldi	r31, 0x00	; 0
 206:	80 81       	ld	r24, Z
 208:	80 68       	ori	r24, 0x80	; 128
 20a:	80 83       	st	Z, r24
		Freq_change = (F_CPU/(freq * 256)) - 1;		//how to change frequency
 20c:	54 2f       	mov	r21, r20
 20e:	43 2f       	mov	r20, r19
 210:	32 2f       	mov	r19, r18
 212:	22 27       	eor	r18, r18
 214:	60 e0       	ldi	r22, 0x00	; 0
 216:	74 e2       	ldi	r23, 0x24	; 36
 218:	84 ef       	ldi	r24, 0xF4	; 244
 21a:	90 e0       	ldi	r25, 0x00	; 0
 21c:	c4 d4       	rcall	.+2440   	; 0xba6 <__udivmodsi4>
 21e:	89 01       	movw	r16, r18
 220:	01 50       	subi	r16, 0x01	; 1
 222:	11 09       	sbc	r17, r1
		ICR3 = Freq_change;
 224:	10 93 97 00 	sts	0x0097, r17	; 0x800097 <__TEXT_REGION_LENGTH__+0x700097>
 228:	00 93 96 00 	sts	0x0096, r16	; 0x800096 <__TEXT_REGION_LENGTH__+0x700096>
		
		num = ((uint32_t) duty_cycle * Freq_change)/100;   //calculate the number
 22c:	2c 2f       	mov	r18, r28
 22e:	30 e0       	ldi	r19, 0x00	; 0
 230:	d8 01       	movw	r26, r16
 232:	db d4       	rcall	.+2486   	; 0xbea <__umulhisi3>
 234:	24 e6       	ldi	r18, 0x64	; 100
 236:	30 e0       	ldi	r19, 0x00	; 0
 238:	40 e0       	ldi	r20, 0x00	; 0
 23a:	50 e0       	ldi	r21, 0x00	; 0
 23c:	b4 d4       	rcall	.+2408   	; 0xba6 <__udivmodsi4>
		OCR3A = num; 								//output the number to PORTE.6
 23e:	30 93 99 00 	sts	0x0099, r19	; 0x800099 <__TEXT_REGION_LENGTH__+0x700099>
 242:	20 93 98 00 	sts	0x0098, r18	; 0x800098 <__TEXT_REGION_LENGTH__+0x700098>

		TCCR3B |= (1<<CS32); 						//Actually compare the OCR to the CS
 246:	e1 e9       	ldi	r30, 0x91	; 145
 248:	f0 e0       	ldi	r31, 0x00	; 0
 24a:	80 81       	ld	r24, Z
 24c:	84 60       	ori	r24, 0x04	; 4
 24e:	80 83       	st	Z, r24
		
		////SECOND MOTOR, DOESN'T WORK
		TCCR5A |= (1<<COM0A1);  					//Enable this part
 250:	e0 e2       	ldi	r30, 0x20	; 32
 252:	f1 e0       	ldi	r31, 0x01	; 1
 254:	80 81       	ld	r24, Z
 256:	80 68       	ori	r24, 0x80	; 128
 258:	80 83       	st	Z, r24
		ICR5 = Freq_change;
 25a:	10 93 27 01 	sts	0x0127, r17	; 0x800127 <__TEXT_REGION_LENGTH__+0x700127>
 25e:	00 93 26 01 	sts	0x0126, r16	; 0x800126 <__TEXT_REGION_LENGTH__+0x700126>
		OCR3C = num; 								//output the number to PORTE.6
 262:	30 93 9d 00 	sts	0x009D, r19	; 0x80009d <__TEXT_REGION_LENGTH__+0x70009d>
 266:	20 93 9c 00 	sts	0x009C, r18	; 0x80009c <__TEXT_REGION_LENGTH__+0x70009c>

		TCCR5B |= (1<<CS42); 						//Actually compare the OCR to the CS		
 26a:	e1 e2       	ldi	r30, 0x21	; 33
 26c:	f1 e0       	ldi	r31, 0x01	; 1
 26e:	80 81       	ld	r24, Z
 270:	84 60       	ori	r24, 0x04	; 4
 272:	80 83       	st	Z, r24
		
		
		//THIRD MOTOR
		TCCR1A |= (1<<COM1A1);  					//Enable this part
 274:	e0 e8       	ldi	r30, 0x80	; 128
 276:	f0 e0       	ldi	r31, 0x00	; 0
 278:	80 81       	ld	r24, Z
 27a:	80 68       	ori	r24, 0x80	; 128
 27c:	80 83       	st	Z, r24
		ICR1 = Freq_change;	
 27e:	10 93 87 00 	sts	0x0087, r17	; 0x800087 <__TEXT_REGION_LENGTH__+0x700087>
 282:	00 93 86 00 	sts	0x0086, r16	; 0x800086 <__TEXT_REGION_LENGTH__+0x700086>
		OCR1A = num; 								//output the number to PORTE.6
 286:	30 93 89 00 	sts	0x0089, r19	; 0x800089 <__TEXT_REGION_LENGTH__+0x700089>
 28a:	20 93 88 00 	sts	0x0088, r18	; 0x800088 <__TEXT_REGION_LENGTH__+0x700088>

		TCCR1B |= (1<<CS12); 						//Actually compare the OCR to the CS		
 28e:	e1 e8       	ldi	r30, 0x81	; 129
 290:	f0 e0       	ldi	r31, 0x00	; 0
 292:	80 81       	ld	r24, Z
 294:	84 60       	ori	r24, 0x04	; 4
 296:	80 83       	st	Z, r24

	}
	
}
 298:	cf 91       	pop	r28
 29a:	1f 91       	pop	r17
 29c:	0f 91       	pop	r16
 29e:	08 95       	ret

000002a0 <io_init>:
#include <avr/io.h> //standard io

void io_init(void)
{
	//Outputs
	DDRL = 0xFF;	/* PORTC all outputs */
 2a0:	8f ef       	ldi	r24, 0xFF	; 255
 2a2:	80 93 0a 01 	sts	0x010A, r24	; 0x80010a <__TEXT_REGION_LENGTH__+0x70010a>
	PORTL = 0x00;	/* Set all outputs to 0 initially */
 2a6:	10 92 0b 01 	sts	0x010B, r1	; 0x80010b <__TEXT_REGION_LENGTH__+0x70010b>
	DDRD = 0xFF;	/* Set D.0 through A.2 to outputs for LCD control */
 2aa:	8a b9       	out	0x0a, r24	; 10
	DDRH = 0xFF;    //Servos
 2ac:	80 93 01 01 	sts	0x0101, r24	; 0x800101 <__TEXT_REGION_LENGTH__+0x700101>
	DDRE = 0xFF;	//port for PWM operation
 2b0:	8d b9       	out	0x0d, r24	; 13
	PORTE =~0x00;	//Initially off
 2b2:	8e b9       	out	0x0e, r24	; 14
	DDRB = 0xFF;	
 2b4:	84 b9       	out	0x04, r24	; 4
	PORTB = 0xFF;
 2b6:	85 b9       	out	0x05, r24	; 5
	//PORTE = 0x00;
	
	//Inputs
	DDRJ = 0x00;	//coolterm input
 2b8:	10 92 04 01 	sts	0x0104, r1	; 0x800104 <__TEXT_REGION_LENGTH__+0x700104>
	DDRC = 0x00;    //debug purposes
 2bc:	17 b8       	out	0x07, r1	; 7
 2be:	08 95       	ret

000002c0 <main>:
#include <avr/interrupt.h>
#include <stdio.h>
#include <util/delay.h>

int main(void)
{
 2c0:	cf 93       	push	r28
 2c2:	df 93       	push	r29
 2c4:	cd b7       	in	r28, 0x3d	; 61
 2c6:	de b7       	in	r29, 0x3e	; 62
 2c8:	ca 59       	subi	r28, 0x9A	; 154
 2ca:	d1 09       	sbc	r29, r1
 2cc:	0f b6       	in	r0, 0x3f	; 63
 2ce:	f8 94       	cli
 2d0:	de bf       	out	0x3e, r29	; 62
 2d2:	0f be       	out	0x3f, r0	; 63
 2d4:	cd bf       	out	0x3d, r28	; 61
	//Initialize
	io_init();
 2d6:	e4 df       	rcall	.-56     	; 0x2a0 <io_init>
	Init_UART3();
 2d8:	eb d1       	rcall	.+982    	; 0x6b0 <Init_UART3>
	servo_init();
 2da:	8a d1       	rcall	.+788    	; 0x5f0 <servo_init>
	sei();
 2dc:	78 94       	sei
	dc_init();
 2de:	22 df       	rcall	.-444    	; 0x124 <dc_init>
 2e0:	87 e5       	ldi	r24, 0x57	; 87
	int conversion;
	uint8_t k = 0;		//counter for parts of PWM operation
	uint8_t l = 0;		//counter for initial PWM message display
	uint8_t z = 0;		//toggle bit to start commands on PWM
	char killme;		//DECIDES WHAT TO DO
	char message[] = "Enter Motor (ABC) or D(all), Duty Cycle, Then Frequency. Hit 'enter' in between each.\n";
 2e2:	e0 e0       	ldi	r30, 0x00	; 0
 2e4:	f2 e0       	ldi	r31, 0x02	; 2
 2e6:	de 01       	movw	r26, r28
 2e8:	11 96       	adiw	r26, 0x01	; 1
 2ea:	01 90       	ld	r0, Z+
 2ec:	0d 92       	st	X+, r0
 2ee:	8a 95       	dec	r24
 2f0:	e1 f7       	brne	.-8      	; 0x2ea <main+0x2a>
 2f2:	86 e1       	ldi	r24, 0x16	; 22
	char message1[] = "servo (S), motor (M)\n";
 2f4:	e7 e5       	ldi	r30, 0x57	; 87
 2f6:	f2 e0       	ldi	r31, 0x02	; 2
 2f8:	de 01       	movw	r26, r28
 2fa:	a8 5a       	subi	r26, 0xA8	; 168
 2fc:	bf 4f       	sbci	r27, 0xFF	; 255
 2fe:	01 90       	ld	r0, Z+
 300:	0d 92       	st	X+, r0
 302:	8a 95       	dec	r24
 304:	e1 f7       	brne	.-8      	; 0x2fe <main+0x3e>
 306:	82 e2       	ldi	r24, 0x22	; 34
	char message2[] = "Enter Degree for servo (0 - 180)\n";
 308:	ed e6       	ldi	r30, 0x6D	; 109
 30a:	f2 e0       	ldi	r31, 0x02	; 2
 30c:	de 01       	movw	r26, r28
 30e:	a2 59       	subi	r26, 0x92	; 146
 310:	bf 4f       	sbci	r27, 0xFF	; 255
 312:	01 90       	ld	r0, Z+
 314:	0d 92       	st	X+, r0
 316:	8a 95       	dec	r24
 318:	e1 f7       	brne	.-8      	; 0x312 <main+0x52>
 31a:	88 e0       	ldi	r24, 0x08	; 8
	
	//testing ASCII converter
	char test_conv[] = "0000071";
 31c:	ef e8       	ldi	r30, 0x8F	; 143
 31e:	f2 e0       	ldi	r31, 0x02	; 2
 320:	de 01       	movw	r26, r28
 322:	a0 57       	subi	r26, 0x70	; 112
 324:	bf 4f       	sbci	r27, 0xFF	; 255
 326:	01 90       	ld	r0, Z+
 328:	0d 92       	st	X+, r0
 32a:	8a 95       	dec	r24
 32c:	e1 f7       	brne	.-8      	; 0x326 <main+0x66>
	int conv_test_num = convert_ASCII(test_conv);
 32e:	ce 01       	movw	r24, r28
 330:	80 57       	subi	r24, 0x70	; 112
 332:	9f 4f       	sbci	r25, 0xFF	; 255
 334:	dd d1       	rcall	.+954    	; 0x6f0 <convert_ASCII>
 336:	20 e0       	ldi	r18, 0x00	; 0
	fast_PWM('A', doot, freq);
 338:	30 e0       	ldi	r19, 0x00	; 0
 33a:	a9 01       	movw	r20, r18
 33c:	60 e0       	ldi	r22, 0x00	; 0
 33e:	81 e4       	ldi	r24, 0x41	; 65
 340:	09 df       	rcall	.-494    	; 0x154 <fast_PWM>
 342:	20 e0       	ldi	r18, 0x00	; 0
	fast_PWM('B', doot, freq);
 344:	30 e0       	ldi	r19, 0x00	; 0
 346:	a9 01       	movw	r20, r18
 348:	60 e0       	ldi	r22, 0x00	; 0
 34a:	82 e4       	ldi	r24, 0x42	; 66
 34c:	03 df       	rcall	.-506    	; 0x154 <fast_PWM>
 34e:	20 e0       	ldi	r18, 0x00	; 0
	fast_PWM('C', doot, freq);
 350:	30 e0       	ldi	r19, 0x00	; 0
 352:	a9 01       	movw	r20, r18
 354:	60 e0       	ldi	r22, 0x00	; 0
 356:	83 e4       	ldi	r24, 0x43	; 67
 358:	fd de       	rcall	.-518    	; 0x154 <fast_PWM>
 35a:	c6 56       	subi	r28, 0x66	; 102
 35c:	df 4f       	sbci	r29, 0xFF	; 255
	uint32_t freq = 0;		//what frequency
	uint32_t GITSERVED = 0; //value for servo
	int conversion;
	uint8_t k = 0;		//counter for parts of PWM operation
	uint8_t l = 0;		//counter for initial PWM message display
	uint8_t z = 0;		//toggle bit to start commands on PWM
 35e:	18 82       	st	Y, r1
 360:	ca 59       	subi	r28, 0x9A	; 154
 362:	d0 40       	sbci	r29, 0x00	; 0
 364:	10 e0       	ldi	r17, 0x00	; 0
 366:	00 e0       	ldi	r16, 0x00	; 0
	uint32_t doot = 0; //what duty cycle
	uint32_t freq = 0;		//what frequency
	uint32_t GITSERVED = 0; //value for servo
	int conversion;
	uint8_t k = 0;		//counter for parts of PWM operation
	uint8_t l = 0;		//counter for initial PWM message display
 368:	81 2c       	mov	r8, r1
	char motor;			//which motor
	uint32_t doot = 0; //what duty cycle
	uint32_t freq = 0;		//what frequency
	uint32_t GITSERVED = 0; //value for servo
	int conversion;
	uint8_t k = 0;		//counter for parts of PWM operation
 36a:	91 2c       	mov	r9, r1
	sei();
	dc_init();
	
	char motor;			//which motor
	uint32_t doot = 0; //what duty cycle
	uint32_t freq = 0;		//what frequency
 36c:	54 01       	movw	r10, r8
 36e:	c1 2c       	mov	r12, r1
 370:	d1 2c       	mov	r13, r1
	servo_init();
	sei();
	dc_init();
	
	char motor;			//which motor
	uint32_t doot = 0; //what duty cycle
 372:	76 01       	movw	r14, r12
 374:	29 e9       	ldi	r18, 0x99	; 153
 376:	32 e0       	ldi	r19, 0x02	; 2
		while(UART_update == 1) //check for UART char receive
		{
			if(l == 3) //Wait on Initial Message
			{
					
				killme = rx_buffer[0]; //set value to buffer value
 378:	c8 56       	subi	r28, 0x68	; 104
 37a:	df 4f       	sbci	r29, 0xFF	; 255
 37c:	28 83       	st	Y, r18
 37e:	c8 59       	subi	r28, 0x98	; 152
 380:	d0 40       	sbci	r29, 0x00	; 0
 382:	c7 56       	subi	r28, 0x67	; 103
 384:	df 4f       	sbci	r29, 0xFF	; 255
 386:	38 83       	st	Y, r19
 388:	c9 59       	subi	r28, 0x99	; 153
 38a:	d0 40       	sbci	r29, 0x00	; 0
 38c:	22 24       	eor	r2, r2
 38e:	23 94       	inc	r2
					l = 2;			   //Display Servo Message
				}
					
				if(killme == 'M')	   //CASE OF PWM MOTOR
				{
					l = 1;			   //Display PWM Message
 390:	11 11       	cpse	r17, r1
 392:	12 c0       	rjmp	.+36     	; 0x3b8 <main+0xf8>
	fast_PWM('B', doot, freq);
	fast_PWM('C', doot, freq);
	
    while (1) 
    {	
		if(l == 0)		//MOTOR OR SERVO?
 394:	69 96       	adiw	r28, 0x19	; 25
		{
			//Initial Message Display
			for(uint8_t j = 0; message1[j] != '\0'; j++)
 396:	8f ad       	ldd	r24, Y+63	; 0x3f
 398:	69 97       	sbiw	r28, 0x19	; 25
 39a:	88 23       	and	r24, r24
 39c:	09 f4       	brne	.+2      	; 0x3a0 <main+0xe0>
 39e:	23 c1       	rjmp	.+582    	; 0x5e6 <__LOCK_REGION_LENGTH__+0x1e6>
 3a0:	9f d1       	rcall	.+830    	; 0x6e0 <UART3_Out>
			{
				UART3_Out(message1[j]); //Display Message One Character at a Time
 3a2:	1f 5f       	subi	r17, 0xFF	; 255
 3a4:	e8 e5       	ldi	r30, 0x58	; 88
    while (1) 
    {	
		if(l == 0)		//MOTOR OR SERVO?
		{
			//Initial Message Display
			for(uint8_t j = 0; message1[j] != '\0'; j++)
 3a6:	f0 e0       	ldi	r31, 0x00	; 0
 3a8:	ec 0f       	add	r30, r28
 3aa:	fd 1f       	adc	r31, r29
 3ac:	e1 0f       	add	r30, r17
 3ae:	f1 1d       	adc	r31, r1
 3b0:	80 81       	ld	r24, Z
 3b2:	81 11       	cpse	r24, r1
 3b4:	f5 cf       	rjmp	.-22     	; 0x3a0 <main+0xe0>
 3b6:	17 c1       	rjmp	.+558    	; 0x5e6 <__LOCK_REGION_LENGTH__+0x1e6>
 3b8:	11 30       	cpi	r17, 0x01	; 1
				UART3_Out(message1[j]); //Display Message One Character at a Time
			}
			l = 3;
		}
		
		if(l == 1)	    //PWM MOTOR MESSAGE
 3ba:	89 f4       	brne	.+34     	; 0x3de <main+0x11e>
 3bc:	89 81       	ldd	r24, Y+1	; 0x01
		{
			//Initial Message Display
			for(uint8_t j = 0; message[j] != '\0'; j++)
 3be:	88 23       	and	r24, r24
 3c0:	09 f4       	brne	.+2      	; 0x3c4 <main+0x104>
 3c2:	13 c1       	rjmp	.+550    	; 0x5ea <__LOCK_REGION_LENGTH__+0x1ea>
 3c4:	10 e0       	ldi	r17, 0x00	; 0
 3c6:	8c d1       	rcall	.+792    	; 0x6e0 <UART3_Out>
			{
				UART3_Out(message[j]); //Display Message One Character at a Time
 3c8:	1f 5f       	subi	r17, 0xFF	; 255
 3ca:	e1 e0       	ldi	r30, 0x01	; 1
		}
		
		if(l == 1)	    //PWM MOTOR MESSAGE
		{
			//Initial Message Display
			for(uint8_t j = 0; message[j] != '\0'; j++)
 3cc:	f0 e0       	ldi	r31, 0x00	; 0
 3ce:	ec 0f       	add	r30, r28
 3d0:	fd 1f       	adc	r31, r29
 3d2:	e1 0f       	add	r30, r17
 3d4:	f1 1d       	adc	r31, r1
 3d6:	80 81       	ld	r24, Z
 3d8:	81 11       	cpse	r24, r1
 3da:	f5 cf       	rjmp	.-22     	; 0x3c6 <main+0x106>
 3dc:	06 c1       	rjmp	.+524    	; 0x5ea <__LOCK_REGION_LENGTH__+0x1ea>
 3de:	12 30       	cpi	r17, 0x02	; 2
 3e0:	39 f4       	brne	.+14     	; 0x3f0 <main+0x130>
			}
			l = 4;
			k = 1;
		}
			
		if(l == 2)		//SERVO DEGREE MESSAGE ( ?° ?? ?°)
 3e2:	af 96       	adiw	r28, 0x2f	; 47
 3e4:	8f ad       	ldd	r24, Y+63	; 0x3f
		{
			//Initial Message Display
			for(uint8_t j = 0; message2[j] != '\0'; j++)
 3e6:	af 97       	sbiw	r28, 0x2f	; 47
 3e8:	81 11       	cpse	r24, r1
 3ea:	09 c0       	rjmp	.+18     	; 0x3fe <main+0x13e>
 3ec:	14 e0       	ldi	r17, 0x04	; 4
 3ee:	05 e0       	ldi	r16, 0x05	; 5
			{
				UART3_Out(message2[j]); //Display Message One Character at a Time
			}
			l = 4;
			k = 5;
 3f0:	80 91 b3 02 	lds	r24, 0x02B3	; 0x8002b3 <UART_update>
		}			
		//UART3_Out(UART_update);			
		//Motor Inputs
		while(UART_update == 1) //check for UART char receive
 3f4:	90 91 b4 02 	lds	r25, 0x02B4	; 0x8002b4 <UART_update+0x1>
 3f8:	01 97       	sbiw	r24, 0x01	; 1
 3fa:	81 f0       	breq	.+32     	; 0x41c <__LOCK_REGION_LENGTH__+0x1c>
 3fc:	a3 c0       	rjmp	.+326    	; 0x544 <__LOCK_REGION_LENGTH__+0x144>
 3fe:	10 e0       	ldi	r17, 0x00	; 0
		}
			
		if(l == 2)		//SERVO DEGREE MESSAGE ( ?° ?? ?°)
		{
			//Initial Message Display
			for(uint8_t j = 0; message2[j] != '\0'; j++)
 400:	6f d1       	rcall	.+734    	; 0x6e0 <UART3_Out>
			{
				UART3_Out(message2[j]); //Display Message One Character at a Time
 402:	1f 5f       	subi	r17, 0xFF	; 255
 404:	ee e6       	ldi	r30, 0x6E	; 110
		}
			
		if(l == 2)		//SERVO DEGREE MESSAGE ( ?° ?? ?°)
		{
			//Initial Message Display
			for(uint8_t j = 0; message2[j] != '\0'; j++)
 406:	f0 e0       	ldi	r31, 0x00	; 0
 408:	ec 0f       	add	r30, r28
 40a:	fd 1f       	adc	r31, r29
 40c:	e1 0f       	add	r30, r17
 40e:	f1 1d       	adc	r31, r1
 410:	80 81       	ld	r24, Z
 412:	81 11       	cpse	r24, r1
 414:	f5 cf       	rjmp	.-22     	; 0x400 <__LOCK_REGION_LENGTH__>
 416:	14 e0       	ldi	r17, 0x04	; 4
 418:	05 e0       	ldi	r16, 0x05	; 5
			{
				UART3_Out(message2[j]); //Display Message One Character at a Time
			}
			l = 4;
 41a:	ea cf       	rjmp	.-44     	; 0x3f0 <main+0x130>
			k = 5;
 41c:	13 30       	cpi	r17, 0x03	; 3
 41e:	99 f4       	brne	.+38     	; 0x446 <__LOCK_REGION_LENGTH__+0x46>
		}			
		//UART3_Out(UART_update);			
		//Motor Inputs
		while(UART_update == 1) //check for UART char receive
		{
			if(l == 3) //Wait on Initial Message
 420:	e9 e9       	ldi	r30, 0x99	; 153
 422:	f2 e0       	ldi	r31, 0x02	; 2
			{
					
				killme = rx_buffer[0]; //set value to buffer value
 424:	80 81       	ld	r24, Z
 426:	ff ef       	ldi	r31, 0xFF	; 255
 428:	26 e7       	ldi	r18, 0x76	; 118
	#else
		//round up by default
		__ticks_dc = (uint32_t)(ceil(fabs(__tmp)));
	#endif

	__builtin_avr_delay_cycles(__ticks_dc);
 42a:	31 e0       	ldi	r19, 0x01	; 1
 42c:	f1 50       	subi	r31, 0x01	; 1
 42e:	20 40       	sbci	r18, 0x00	; 0
 430:	30 40       	sbci	r19, 0x00	; 0
 432:	e1 f7       	brne	.-8      	; 0x42c <__LOCK_REGION_LENGTH__+0x2c>
 434:	00 c0       	rjmp	.+0      	; 0x436 <__LOCK_REGION_LENGTH__+0x36>
 436:	00 00       	nop
 438:	83 35       	cpi	r24, 0x53	; 83
 43a:	21 f0       	breq	.+8      	; 0x444 <__LOCK_REGION_LENGTH__+0x44>
				_delay_ms(30);		   //wait for some reason
					
				if(killme == 'S')	   //CASE OF SERVO
 43c:	8d 34       	cpi	r24, 0x4D	; 77
 43e:	19 f4       	brne	.+6      	; 0x446 <__LOCK_REGION_LENGTH__+0x46>
				{
					l = 2;			   //Display Servo Message
				}
					
				if(killme == 'M')	   //CASE OF PWM MOTOR
 440:	12 2d       	mov	r17, r2
				{
					l = 1;			   //Display PWM Message
 442:	01 c0       	rjmp	.+2      	; 0x446 <__LOCK_REGION_LENGTH__+0x46>
 444:	12 e0       	ldi	r17, 0x02	; 2
				killme = rx_buffer[0]; //set value to buffer value
				_delay_ms(30);		   //wait for some reason
					
				if(killme == 'S')	   //CASE OF SERVO
				{
					l = 2;			   //Display Servo Message
 446:	01 30       	cpi	r16, 0x01	; 1
				{
					l = 1;			   //Display PWM Message
				}
			}
				
			if(k == 1)									//first time read motor select
 448:	31 f4       	brne	.+12     	; 0x456 <__LOCK_REGION_LENGTH__+0x56>
 44a:	e9 e9       	ldi	r30, 0x99	; 153
			{
				motor = rx_buffer[0];
 44c:	f2 e0       	ldi	r31, 0x02	; 2
 44e:	30 80       	ld	r3, Z
 450:	83 2d       	mov	r24, r3
				UART3_Out(motor);						//debug
 452:	46 d1       	rcall	.+652    	; 0x6e0 <UART3_Out>
 454:	3f c0       	rjmp	.+126    	; 0x4d4 <__LOCK_REGION_LENGTH__+0xd4>
 456:	02 30       	cpi	r16, 0x02	; 2
 458:	d9 f4       	brne	.+54     	; 0x490 <__LOCK_REGION_LENGTH__+0x90>
			}
			if(k == 2)									//second time read duty cycle
 45a:	ff ef       	ldi	r31, 0xFF	; 255
 45c:	29 ef       	ldi	r18, 0xF9	; 249
 45e:	30 e0       	ldi	r19, 0x00	; 0
 460:	f1 50       	subi	r31, 0x01	; 1
 462:	20 40       	sbci	r18, 0x00	; 0
 464:	30 40       	sbci	r19, 0x00	; 0
 466:	e1 f7       	brne	.-8      	; 0x460 <__LOCK_REGION_LENGTH__+0x60>
 468:	00 c0       	rjmp	.+0      	; 0x46a <__LOCK_REGION_LENGTH__+0x6a>
 46a:	00 00       	nop
 46c:	c8 56       	subi	r28, 0x68	; 104
			{
				_delay_ms(20);							//wait, maybe not necessary
				conversion = convert_ASCII(rx_buffer);	//convert ASCII to Decimal
 46e:	df 4f       	sbci	r29, 0xFF	; 255
 470:	88 81       	ld	r24, Y
 472:	c8 59       	subi	r28, 0x98	; 152
 474:	d0 40       	sbci	r29, 0x00	; 0
 476:	c7 56       	subi	r28, 0x67	; 103
 478:	df 4f       	sbci	r29, 0xFF	; 255
 47a:	98 81       	ld	r25, Y
 47c:	c9 59       	subi	r28, 0x99	; 153
 47e:	d0 40       	sbci	r29, 0x00	; 0
 480:	37 d1       	rcall	.+622    	; 0x6f0 <convert_ASCII>
 482:	6c 01       	movw	r12, r24
				doot = conversion;
 484:	99 0f       	add	r25, r25
 486:	ee 08       	sbc	r14, r14
 488:	ff 08       	sbc	r15, r15
 48a:	8c 2d       	mov	r24, r12
				UART3_Out(doot);						//debug
 48c:	29 d1       	rcall	.+594    	; 0x6e0 <UART3_Out>
 48e:	45 c0       	rjmp	.+138    	; 0x51a <__LOCK_REGION_LENGTH__+0x11a>
 490:	03 30       	cpi	r16, 0x03	; 3
 492:	01 f5       	brne	.+64     	; 0x4d4 <__LOCK_REGION_LENGTH__+0xd4>
					
			}	
			if(k == 3)									//third time read frequency
 494:	8f ef       	ldi	r24, 0xFF	; 255
 496:	99 ef       	ldi	r25, 0xF9	; 249
 498:	e0 e0       	ldi	r30, 0x00	; 0
 49a:	81 50       	subi	r24, 0x01	; 1
 49c:	90 40       	sbci	r25, 0x00	; 0
 49e:	e0 40       	sbci	r30, 0x00	; 0
 4a0:	e1 f7       	brne	.-8      	; 0x49a <__LOCK_REGION_LENGTH__+0x9a>
 4a2:	00 c0       	rjmp	.+0      	; 0x4a4 <__LOCK_REGION_LENGTH__+0xa4>
 4a4:	00 00       	nop
 4a6:	c8 56       	subi	r28, 0x68	; 104
			{
				_delay_ms(20);
				conversion = convert_ASCII(rx_buffer);
 4a8:	df 4f       	sbci	r29, 0xFF	; 255
 4aa:	88 81       	ld	r24, Y
 4ac:	c8 59       	subi	r28, 0x98	; 152
 4ae:	d0 40       	sbci	r29, 0x00	; 0
 4b0:	c7 56       	subi	r28, 0x67	; 103
 4b2:	df 4f       	sbci	r29, 0xFF	; 255
 4b4:	98 81       	ld	r25, Y
 4b6:	c9 59       	subi	r28, 0x99	; 153
 4b8:	d0 40       	sbci	r29, 0x00	; 0
 4ba:	1a d1       	rcall	.+564    	; 0x6f0 <convert_ASCII>
 4bc:	4c 01       	movw	r8, r24
				freq = conversion;				
 4be:	99 0f       	add	r25, r25
 4c0:	aa 08       	sbc	r10, r10
 4c2:	bb 08       	sbc	r11, r11
 4c4:	88 2d       	mov	r24, r8
				UART3_Out(freq);						//debug
 4c6:	0c d1       	rcall	.+536    	; 0x6e0 <UART3_Out>
 4c8:	c6 56       	subi	r28, 0x66	; 102
 4ca:	df 4f       	sbci	r29, 0xFF	; 255
				z = 1;
 4cc:	28 82       	st	Y, r2
 4ce:	ca 59       	subi	r28, 0x9A	; 154
 4d0:	d0 40       	sbci	r29, 0x00	; 0
 4d2:	23 c0       	rjmp	.+70     	; 0x51a <__LOCK_REGION_LENGTH__+0x11a>
 4d4:	05 30       	cpi	r16, 0x05	; 5
 4d6:	09 f5       	brne	.+66     	; 0x51a <__LOCK_REGION_LENGTH__+0x11a>
			}
			if(k == 5)
 4d8:	ff ef       	ldi	r31, 0xFF	; 255
 4da:	29 ef       	ldi	r18, 0xF9	; 249
 4dc:	30 e0       	ldi	r19, 0x00	; 0
 4de:	f1 50       	subi	r31, 0x01	; 1
 4e0:	20 40       	sbci	r18, 0x00	; 0
 4e2:	30 40       	sbci	r19, 0x00	; 0
 4e4:	e1 f7       	brne	.-8      	; 0x4de <__LOCK_REGION_LENGTH__+0xde>
 4e6:	00 c0       	rjmp	.+0      	; 0x4e8 <__LOCK_REGION_LENGTH__+0xe8>
 4e8:	00 00       	nop
 4ea:	c8 56       	subi	r28, 0x68	; 104
			{
				_delay_ms(20);
				conversion = convert_ASCII(rx_buffer);	//convert ASCII to Decimal
 4ec:	df 4f       	sbci	r29, 0xFF	; 255
 4ee:	88 81       	ld	r24, Y
 4f0:	c8 59       	subi	r28, 0x98	; 152
 4f2:	d0 40       	sbci	r29, 0x00	; 0
 4f4:	c7 56       	subi	r28, 0x67	; 103
 4f6:	df 4f       	sbci	r29, 0xFF	; 255
 4f8:	98 81       	ld	r25, Y
 4fa:	c9 59       	subi	r28, 0x99	; 153
 4fc:	d0 40       	sbci	r29, 0x00	; 0
				GITSERVED = conversion;					//Set conversion to servo value
 4fe:	f8 d0       	rcall	.+496    	; 0x6f0 <convert_ASCII>
 500:	2c 01       	movw	r4, r24
 502:	09 2e       	mov	r0, r25
 504:	00 0c       	add	r0, r0
 506:	66 08       	sbc	r6, r6
				
				turn_servo(GITSERVED);					//Make servo 1 turn to set value
 508:	77 08       	sbc	r7, r7
 50a:	96 d0       	rcall	.+300    	; 0x638 <turn_servo>
				turn_servo1(GITSERVED);					//Make servo 2 turn, doesn't work
 50c:	c3 01       	movw	r24, r6
 50e:	b2 01       	movw	r22, r4
 510:	a7 d0       	rcall	.+334    	; 0x660 <turn_servo1>
 512:	c3 01       	movw	r24, r6
				turn_servo2(GITSERVED);					//Make servo 3 turn, doesn't work
 514:	b2 01       	movw	r22, r4
 516:	b8 d0       	rcall	.+368    	; 0x688 <turn_servo2>
 518:	03 e0       	ldi	r16, 0x03	; 3
 51a:	8f ef       	ldi	r24, 0xFF	; 255
				k = 3;
 51c:	91 ee       	ldi	r25, 0xE1	; 225
 51e:	e4 e0       	ldi	r30, 0x04	; 4
 520:	81 50       	subi	r24, 0x01	; 1
 522:	90 40       	sbci	r25, 0x00	; 0
 524:	e0 40       	sbci	r30, 0x00	; 0
 526:	e1 f7       	brne	.-8      	; 0x520 <__LOCK_REGION_LENGTH__+0x120>
 528:	00 c0       	rjmp	.+0      	; 0x52a <__LOCK_REGION_LENGTH__+0x12a>
 52a:	00 00       	nop
 52c:	0f 5f       	subi	r16, 0xFF	; 255
 52e:	10 92 b4 02 	sts	0x02B4, r1	; 0x8002b4 <UART_update+0x1>
			}
			_delay_ms(100);		//wait, maybe not necessary
			k++;				//increment k to accept next piece of command
			UART_update = 0;	//reset UART-update to 0
 532:	10 92 b3 02 	sts	0x02B3, r1	; 0x8002b3 <UART_update>
 536:	80 91 b3 02 	lds	r24, 0x02B3	; 0x8002b3 <UART_update>
			l = 4;
			k = 5;
		}			
		//UART3_Out(UART_update);			
		//Motor Inputs
		while(UART_update == 1) //check for UART char receive
 53a:	90 91 b4 02 	lds	r25, 0x02B4	; 0x8002b4 <UART_update+0x1>
 53e:	01 97       	sbiw	r24, 0x01	; 1
 540:	09 f4       	brne	.+2      	; 0x544 <__LOCK_REGION_LENGTH__+0x144>
 542:	6c cf       	rjmp	.-296    	; 0x41c <__LOCK_REGION_LENGTH__+0x1c>
 544:	c6 56       	subi	r28, 0x66	; 102
			_delay_ms(100);		//wait, maybe not necessary
			k++;				//increment k to accept next piece of command
			UART_update = 0;	//reset UART-update to 0
		}
			
		if(z == 1)
 546:	df 4f       	sbci	r29, 0xFF	; 255
 548:	f8 81       	ld	r31, Y
 54a:	ca 59       	subi	r28, 0x9A	; 154
 54c:	d0 40       	sbci	r29, 0x00	; 0
 54e:	f1 30       	cpi	r31, 0x01	; 1
 550:	29 f4       	brne	.+10     	; 0x55c <__LOCK_REGION_LENGTH__+0x15c>
 552:	a5 01       	movw	r20, r10
		{
			fast_PWM(motor, doot, freq); //make PWM run from function
 554:	94 01       	movw	r18, r8
 556:	6c 2d       	mov	r22, r12
 558:	83 2d       	mov	r24, r3
 55a:	fc dd       	rcall	.-1032   	; 0x154 <fast_PWM>
 55c:	04 30       	cpi	r16, 0x04	; 4
		}	
		
		//if all inputs received
		if(k == 4)
 55e:	41 f4       	brne	.+16     	; 0x570 <__LOCK_REGION_LENGTH__+0x170>
		{
			k = 0;
			l = 0;
			z = 1;
 560:	21 e0       	ldi	r18, 0x01	; 1
 562:	c6 56       	subi	r28, 0x66	; 102
 564:	df 4f       	sbci	r29, 0xFF	; 255
 566:	28 83       	st	Y, r18
 568:	ca 59       	subi	r28, 0x9A	; 154
 56a:	d0 40       	sbci	r29, 0x00	; 0
		
		//if all inputs received
		if(k == 4)
		{
			k = 0;
			l = 0;
 56c:	10 e0       	ldi	r17, 0x00	; 0
		}	
		
		//if all inputs received
		if(k == 4)
		{
			k = 0;
 56e:	00 e0       	ldi	r16, 0x00	; 0
		
		
		
		

		if(PUSHBUTTON1) //TURN ON ALL MOTORS to "defaults"
 570:	30 99       	sbic	0x06, 0	; 6
 572:	1e c0       	rjmp	.+60     	; 0x5b0 <__LOCK_REGION_LENGTH__+0x1b0>
		{
			fast_PWM('D', 50, 200000);	//motor A  duty cycle 0 freq 0
 574:	20 e4       	ldi	r18, 0x40	; 64
 576:	3d e0       	ldi	r19, 0x0D	; 13
 578:	43 e0       	ldi	r20, 0x03	; 3
 57a:	50 e0       	ldi	r21, 0x00	; 0
 57c:	62 e3       	ldi	r22, 0x32	; 50
 57e:	84 e4       	ldi	r24, 0x44	; 68
 580:	e9 dd       	rcall	.-1070   	; 0x154 <fast_PWM>
 582:	8a e5       	ldi	r24, 0x5A	; 90
			
			//Reset Entered Values to default
			motor = 'D';
			doot = 50;
			freq = 200000;
			turn_servo(90);			//Reset Servo Motor
 584:	90 e0       	ldi	r25, 0x00	; 0
 586:	58 d0       	rcall	.+176    	; 0x638 <turn_servo>
 588:	0f 2e       	mov	r0, r31
 58a:	f0 e4       	ldi	r31, 0x40	; 64
			fast_PWM('D', 50, 200000);	//motor A  duty cycle 0 freq 0
			
			//Reset Entered Values to default
			motor = 'D';
			doot = 50;
			freq = 200000;
 58c:	8f 2e       	mov	r8, r31
 58e:	fd e0       	ldi	r31, 0x0D	; 13
 590:	9f 2e       	mov	r9, r31
 592:	f3 e0       	ldi	r31, 0x03	; 3
 594:	af 2e       	mov	r10, r31
 596:	b1 2c       	mov	r11, r1
 598:	f0 2d       	mov	r31, r0
		{
			fast_PWM('D', 50, 200000);	//motor A  duty cycle 0 freq 0
			
			//Reset Entered Values to default
			motor = 'D';
			doot = 50;
 59a:	0f 2e       	mov	r0, r31
 59c:	f2 e3       	ldi	r31, 0x32	; 50
 59e:	cf 2e       	mov	r12, r31
 5a0:	d1 2c       	mov	r13, r1
 5a2:	e1 2c       	mov	r14, r1
 5a4:	f1 2c       	mov	r15, r1
 5a6:	f0 2d       	mov	r31, r0
		if(PUSHBUTTON1) //TURN ON ALL MOTORS to "defaults"
		{
			fast_PWM('D', 50, 200000);	//motor A  duty cycle 0 freq 0
			
			//Reset Entered Values to default
			motor = 'D';
 5a8:	0f 2e       	mov	r0, r31
 5aa:	f4 e4       	ldi	r31, 0x44	; 68
 5ac:	3f 2e       	mov	r3, r31
 5ae:	f0 2d       	mov	r31, r0
			doot = 50;
			freq = 200000;
			turn_servo(90);			//Reset Servo Motor
		}
		
		if(PUSHBUTTON2)	//TURN OFF ALL MOTORS
 5b0:	31 99       	sbic	0x06, 1	; 6
 5b2:	13 c0       	rjmp	.+38     	; 0x5da <__LOCK_REGION_LENGTH__+0x1da>
		{
			turn_servo(0);	//turns the servo motor at 90 deg steps or something
 5b4:	80 e0       	ldi	r24, 0x00	; 0
 5b6:	90 e0       	ldi	r25, 0x00	; 0
 5b8:	3f d0       	rcall	.+126    	; 0x638 <turn_servo>
			
			//Reset all PWM's to initial
			motor = 'D';
			doot = 0;
			freq = 0;
			fast_PWM(motor, doot, freq);
 5ba:	20 e0       	ldi	r18, 0x00	; 0
 5bc:	30 e0       	ldi	r19, 0x00	; 0
 5be:	a9 01       	movw	r20, r18
 5c0:	60 e0       	ldi	r22, 0x00	; 0
 5c2:	84 e4       	ldi	r24, 0x44	; 68
 5c4:	c7 dd       	rcall	.-1138   	; 0x154 <fast_PWM>
 5c6:	81 2c       	mov	r8, r1
			turn_servo(0);	//turns the servo motor at 90 deg steps or something
			
			//Reset all PWM's to initial
			motor = 'D';
			doot = 0;
			freq = 0;
 5c8:	91 2c       	mov	r9, r1
 5ca:	54 01       	movw	r10, r8
 5cc:	c1 2c       	mov	r12, r1
		{
			turn_servo(0);	//turns the servo motor at 90 deg steps or something
			
			//Reset all PWM's to initial
			motor = 'D';
			doot = 0;
 5ce:	d1 2c       	mov	r13, r1
 5d0:	76 01       	movw	r14, r12
 5d2:	0f 2e       	mov	r0, r31
		if(PUSHBUTTON2)	//TURN OFF ALL MOTORS
		{
			turn_servo(0);	//turns the servo motor at 90 deg steps or something
			
			//Reset all PWM's to initial
			motor = 'D';
 5d4:	f4 e4       	ldi	r31, 0x44	; 68
 5d6:	3f 2e       	mov	r3, r31
 5d8:	f0 2d       	mov	r31, r0
 5da:	33 99       	sbic	0x06, 3	; 6
			doot = 0;
			freq = 0;
			fast_PWM(motor, doot, freq);
		}
		
		if(PUSHBUTTON4) //RESET MOTORS TO DEFAULTS
 5dc:	d9 ce       	rjmp	.-590    	; 0x390 <main+0xd0>
 5de:	80 e0       	ldi	r24, 0x00	; 0
		{
			//reset as if no selection pressed
			turn_servo(0);			//Reset Servo Motor
 5e0:	90 e0       	ldi	r25, 0x00	; 0
 5e2:	2a d0       	rcall	.+84     	; 0x638 <turn_servo>
 5e4:	d5 ce       	rjmp	.-598    	; 0x390 <main+0xd0>
 5e6:	13 e0       	ldi	r17, 0x03	; 3
 5e8:	03 cf       	rjmp	.-506    	; 0x3f0 <main+0x130>
			for(uint8_t j = 0; message2[j] != '\0'; j++)
			{
				UART3_Out(message2[j]); //Display Message One Character at a Time
			}
			l = 4;
			k = 5;
 5ea:	14 e0       	ldi	r17, 0x04	; 4
 5ec:	01 e0       	ldi	r16, 0x01	; 1
 5ee:	00 cf       	rjmp	.-512    	; 0x3f0 <main+0x130>

000005f0 <servo_init>:
#include "USART.h"
#include <util/delay.h>

void servo_init(void)
{
	TCCR4A|=(1<<COM4A1)|(1<<COM4B1)|(1<<WGM41);        //NON Inverted PWM
 5f0:	e0 ea       	ldi	r30, 0xA0	; 160
 5f2:	f0 e0       	ldi	r31, 0x00	; 0
 5f4:	80 81       	ld	r24, Z
 5f6:	82 6a       	ori	r24, 0xA2	; 162
 5f8:	80 83       	st	Z, r24
	TCCR4B|=(1<<WGM43)|(1<<WGM42)|(1<<CS41)|(1<<CS40); //PRESCALER=64 MODE 14(FAST PWM)
 5fa:	e1 ea       	ldi	r30, 0xA1	; 161
 5fc:	f0 e0       	ldi	r31, 0x00	; 0
 5fe:	80 81       	ld	r24, Z
 600:	8b 61       	ori	r24, 0x1B	; 27
 602:	80 83       	st	Z, r24
	
	
	TCCR4C|= (1<< FOC4B)| (1<< FOC4C); //MIGHT FORCE OC4B and OC4C to work
 604:	e2 ea       	ldi	r30, 0xA2	; 162
 606:	f0 e0       	ldi	r31, 0x00	; 0
 608:	80 81       	ld	r24, Z
 60a:	80 66       	ori	r24, 0x60	; 96
 60c:	80 83       	st	Z, r24
	
	ICR4=4999;  	//fPWM=50Hz (Period = 20ms Standard).
 60e:	87 e8       	ldi	r24, 0x87	; 135
 610:	93 e1       	ldi	r25, 0x13	; 19
 612:	90 93 a7 00 	sts	0x00A7, r25	; 0x8000a7 <__TEXT_REGION_LENGTH__+0x7000a7>
 616:	80 93 a6 00 	sts	0x00A6, r24	; 0x8000a6 <__TEXT_REGION_LENGTH__+0x7000a6>
	OCR4A = 145;	//0 deg
 61a:	81 e9       	ldi	r24, 0x91	; 145
 61c:	90 e0       	ldi	r25, 0x00	; 0
 61e:	90 93 a9 00 	sts	0x00A9, r25	; 0x8000a9 <__TEXT_REGION_LENGTH__+0x7000a9>
 622:	80 93 a8 00 	sts	0x00A8, r24	; 0x8000a8 <__TEXT_REGION_LENGTH__+0x7000a8>
	OCR4B = 145;	//doesn't work, we thought it would
 626:	90 93 ab 00 	sts	0x00AB, r25	; 0x8000ab <__TEXT_REGION_LENGTH__+0x7000ab>
 62a:	80 93 aa 00 	sts	0x00AA, r24	; 0x8000aa <__TEXT_REGION_LENGTH__+0x7000aa>
	OCR4C = 145;	//doesn't work, we thought it would
 62e:	90 93 ad 00 	sts	0x00AD, r25	; 0x8000ad <__TEXT_REGION_LENGTH__+0x7000ad>
 632:	80 93 ac 00 	sts	0x00AC, r24	; 0x8000ac <__TEXT_REGION_LENGTH__+0x7000ac>
 636:	08 95       	ret

00000638 <turn_servo>:
}

void turn_servo(uint16_t deg)
{
	OCR4A = (deg * 2.44) + 145;	//send degree out to servo motor
 638:	bc 01       	movw	r22, r24
 63a:	80 e0       	ldi	r24, 0x00	; 0
 63c:	90 e0       	ldi	r25, 0x00	; 0
 63e:	b3 d1       	rcall	.+870    	; 0x9a6 <__floatunsisf>
 640:	26 ef       	ldi	r18, 0xF6	; 246
 642:	38 e2       	ldi	r19, 0x28	; 40
 644:	4c e1       	ldi	r20, 0x1C	; 28
 646:	50 e4       	ldi	r21, 0x40	; 64
 648:	3c d2       	rcall	.+1144   	; 0xac2 <__mulsf3>
 64a:	20 e0       	ldi	r18, 0x00	; 0
 64c:	30 e0       	ldi	r19, 0x00	; 0
 64e:	41 e1       	ldi	r20, 0x11	; 17
 650:	53 e4       	ldi	r21, 0x43	; 67
 652:	19 d1       	rcall	.+562    	; 0x886 <__addsf3>
 654:	7c d1       	rcall	.+760    	; 0x94e <__fixunssfsi>
 656:	70 93 a9 00 	sts	0x00A9, r23	; 0x8000a9 <__TEXT_REGION_LENGTH__+0x7000a9>
 65a:	60 93 a8 00 	sts	0x00A8, r22	; 0x8000a8 <__TEXT_REGION_LENGTH__+0x7000a8>
 65e:	08 95       	ret

00000660 <turn_servo1>:
}

//THESE DON'T WORK, BUT WE TRIED
void turn_servo1(uint16_t deg)
{
	OCR4B = (deg * 2.44) + 145;
 660:	bc 01       	movw	r22, r24
 662:	80 e0       	ldi	r24, 0x00	; 0
 664:	90 e0       	ldi	r25, 0x00	; 0
 666:	9f d1       	rcall	.+830    	; 0x9a6 <__floatunsisf>
 668:	26 ef       	ldi	r18, 0xF6	; 246
 66a:	38 e2       	ldi	r19, 0x28	; 40
 66c:	4c e1       	ldi	r20, 0x1C	; 28
 66e:	50 e4       	ldi	r21, 0x40	; 64
 670:	28 d2       	rcall	.+1104   	; 0xac2 <__mulsf3>
 672:	20 e0       	ldi	r18, 0x00	; 0
 674:	30 e0       	ldi	r19, 0x00	; 0
 676:	41 e1       	ldi	r20, 0x11	; 17
 678:	53 e4       	ldi	r21, 0x43	; 67
 67a:	05 d1       	rcall	.+522    	; 0x886 <__addsf3>
 67c:	68 d1       	rcall	.+720    	; 0x94e <__fixunssfsi>
 67e:	70 93 ab 00 	sts	0x00AB, r23	; 0x8000ab <__TEXT_REGION_LENGTH__+0x7000ab>
 682:	60 93 aa 00 	sts	0x00AA, r22	; 0x8000aa <__TEXT_REGION_LENGTH__+0x7000aa>
 686:	08 95       	ret

00000688 <turn_servo2>:
	
}

void turn_servo2(uint16_t deg)
{
	OCR4C = (deg * 2.44) + 145;
 688:	bc 01       	movw	r22, r24
 68a:	80 e0       	ldi	r24, 0x00	; 0
 68c:	90 e0       	ldi	r25, 0x00	; 0
 68e:	8b d1       	rcall	.+790    	; 0x9a6 <__floatunsisf>
 690:	26 ef       	ldi	r18, 0xF6	; 246
 692:	38 e2       	ldi	r19, 0x28	; 40
 694:	4c e1       	ldi	r20, 0x1C	; 28
 696:	50 e4       	ldi	r21, 0x40	; 64
 698:	14 d2       	rcall	.+1064   	; 0xac2 <__mulsf3>
 69a:	20 e0       	ldi	r18, 0x00	; 0
 69c:	30 e0       	ldi	r19, 0x00	; 0
 69e:	41 e1       	ldi	r20, 0x11	; 17
 6a0:	53 e4       	ldi	r21, 0x43	; 67
 6a2:	f1 d0       	rcall	.+482    	; 0x886 <__addsf3>
 6a4:	54 d1       	rcall	.+680    	; 0x94e <__fixunssfsi>
 6a6:	70 93 ad 00 	sts	0x00AD, r23	; 0x8000ad <__TEXT_REGION_LENGTH__+0x7000ad>
 6aa:	60 93 ac 00 	sts	0x00AC, r22	; 0x8000ac <__TEXT_REGION_LENGTH__+0x7000ac>
 6ae:	08 95       	ret

000006b0 <Init_UART3>:
uint8_t UART3_In(void)
{
	while((UCSR3A & (1<<UDRE3))==0);	//wait until UDR3
										//is ready for new data
	return (UDR3);
}
 6b0:	10 92 30 01 	sts	0x0130, r1	; 0x800130 <__TEXT_REGION_LENGTH__+0x700130>
 6b4:	e1 e3       	ldi	r30, 0x31	; 49
 6b6:	f1 e0       	ldi	r31, 0x01	; 1
 6b8:	80 81       	ld	r24, Z
 6ba:	88 60       	ori	r24, 0x08	; 8
 6bc:	80 83       	st	Z, r24
 6be:	80 81       	ld	r24, Z
 6c0:	80 61       	ori	r24, 0x10	; 16
 6c2:	80 83       	st	Z, r24
 6c4:	80 81       	ld	r24, Z
 6c6:	80 68       	ori	r24, 0x80	; 128
 6c8:	80 83       	st	Z, r24
 6ca:	e2 e3       	ldi	r30, 0x32	; 50
 6cc:	f1 e0       	ldi	r31, 0x01	; 1
 6ce:	80 81       	ld	r24, Z
 6d0:	86 60       	ori	r24, 0x06	; 6
 6d2:	80 83       	st	Z, r24
 6d4:	87 e6       	ldi	r24, 0x67	; 103
 6d6:	80 93 34 01 	sts	0x0134, r24	; 0x800134 <__TEXT_REGION_LENGTH__+0x700134>
 6da:	10 92 35 01 	sts	0x0135, r1	; 0x800135 <__TEXT_REGION_LENGTH__+0x700135>
 6de:	08 95       	ret

000006e0 <UART3_Out>:
 6e0:	e0 e3       	ldi	r30, 0x30	; 48
 6e2:	f1 e0       	ldi	r31, 0x01	; 1
 6e4:	90 81       	ld	r25, Z
 6e6:	95 ff       	sbrs	r25, 5
 6e8:	fd cf       	rjmp	.-6      	; 0x6e4 <UART3_Out+0x4>
 6ea:	80 93 36 01 	sts	0x0136, r24	; 0x800136 <__TEXT_REGION_LENGTH__+0x700136>
 6ee:	08 95       	ret

000006f0 <convert_ASCII>:

//Function to Convert ASCII to Integer
int convert_ASCII(char rx_buffer[])
{
 6f0:	cf 92       	push	r12
 6f2:	df 92       	push	r13
 6f4:	ef 92       	push	r14
 6f6:	ff 92       	push	r15
 6f8:	0f 93       	push	r16
 6fa:	1f 93       	push	r17
 6fc:	cf 93       	push	r28
 6fe:	df 93       	push	r29
 700:	cd b7       	in	r28, 0x3d	; 61
 702:	de b7       	in	r29, 0x3e	; 62
 704:	6c 97       	sbiw	r28, 0x1c	; 28
 706:	0f b6       	in	r0, 0x3f	; 63
 708:	f8 94       	cli
 70a:	de bf       	out	0x3e, r29	; 62
 70c:	0f be       	out	0x3f, r0	; 63
 70e:	cd bf       	out	0x3d, r28	; 61
 710:	dc 01       	movw	r26, r24
 712:	fe 01       	movw	r30, r28
 714:	31 96       	adiw	r30, 0x01	; 1
 716:	ce 01       	movw	r24, r28
 718:	4d 96       	adiw	r24, 0x1d	; 29
	uint32_t converted;
	uint32_t place[7];

	for(uint8_t p = 0; p < 7; p++) //step through string
	{
		place[p] = rx_buffer[p] - 0x30;	//subtract 0x30 from string number to make ASCII place value
 71a:	4d 91       	ld	r20, X+
 71c:	50 e0       	ldi	r21, 0x00	; 0
 71e:	40 53       	subi	r20, 0x30	; 48
 720:	51 09       	sbc	r21, r1
 722:	05 2e       	mov	r0, r21
 724:	00 0c       	add	r0, r0
 726:	66 0b       	sbc	r22, r22
 728:	77 0b       	sbc	r23, r23
 72a:	41 93       	st	Z+, r20
 72c:	51 93       	st	Z+, r21
 72e:	61 93       	st	Z+, r22
 730:	71 93       	st	Z+, r23
int convert_ASCII(char rx_buffer[])
{
	uint32_t converted;
	uint32_t place[7];

	for(uint8_t p = 0; p < 7; p++) //step through string
 732:	e8 17       	cp	r30, r24
 734:	f9 07       	cpc	r31, r25
 736:	89 f7       	brne	.-30     	; 0x71a <convert_ASCII+0x2a>
	}
	
	//Add up all of the place values to make full number
	converted = (place[0] *1000000) + (place[1] *100000) + (place[2] *10000) + (place[3] *1000)+ (place[4] *100)+ (place[5] *10)+ (place[6]);
	
	return converted; //return converted number
 738:	29 81       	ldd	r18, Y+1	; 0x01
 73a:	3a 81       	ldd	r19, Y+2	; 0x02
 73c:	4b 81       	ldd	r20, Y+3	; 0x03
 73e:	5c 81       	ldd	r21, Y+4	; 0x04
 740:	60 e4       	ldi	r22, 0x40	; 64
 742:	72 e4       	ldi	r23, 0x42	; 66
 744:	8f e0       	ldi	r24, 0x0F	; 15
 746:	90 e0       	ldi	r25, 0x00	; 0
 748:	1f d2       	rcall	.+1086   	; 0xb88 <__mulsi3>
 74a:	6b 01       	movw	r12, r22
 74c:	7c 01       	movw	r14, r24
 74e:	2d 81       	ldd	r18, Y+5	; 0x05
 750:	3e 81       	ldd	r19, Y+6	; 0x06
 752:	4f 81       	ldd	r20, Y+7	; 0x07
 754:	58 85       	ldd	r21, Y+8	; 0x08
 756:	60 ea       	ldi	r22, 0xA0	; 160
 758:	76 e8       	ldi	r23, 0x86	; 134
 75a:	81 e0       	ldi	r24, 0x01	; 1
 75c:	90 e0       	ldi	r25, 0x00	; 0
 75e:	14 d2       	rcall	.+1064   	; 0xb88 <__mulsi3>
 760:	c6 0e       	add	r12, r22
 762:	d7 1e       	adc	r13, r23
 764:	e8 1e       	adc	r14, r24
 766:	f9 1e       	adc	r15, r25
 768:	89 8d       	ldd	r24, Y+25	; 0x19
 76a:	9a 8d       	ldd	r25, Y+26	; 0x1a
 76c:	ab 8d       	ldd	r26, Y+27	; 0x1b
 76e:	bc 8d       	ldd	r27, Y+28	; 0x1c
 770:	c8 0e       	add	r12, r24
 772:	d9 1e       	adc	r13, r25
 774:	ea 1e       	adc	r14, r26
 776:	fb 1e       	adc	r15, r27
 778:	2d 85       	ldd	r18, Y+13	; 0x0d
 77a:	3e 85       	ldd	r19, Y+14	; 0x0e
 77c:	4f 85       	ldd	r20, Y+15	; 0x0f
 77e:	58 89       	ldd	r21, Y+16	; 0x10
 780:	a8 ee       	ldi	r26, 0xE8	; 232
 782:	b3 e0       	ldi	r27, 0x03	; 3
 784:	41 d2       	rcall	.+1154   	; 0xc08 <__muluhisi3>
 786:	c6 0e       	add	r12, r22
 788:	d7 1e       	adc	r13, r23
 78a:	e8 1e       	adc	r14, r24
 78c:	f9 1e       	adc	r15, r25
 78e:	29 85       	ldd	r18, Y+9	; 0x09
 790:	3a 85       	ldd	r19, Y+10	; 0x0a
 792:	4b 85       	ldd	r20, Y+11	; 0x0b
 794:	5c 85       	ldd	r21, Y+12	; 0x0c
 796:	a0 e1       	ldi	r26, 0x10	; 16
 798:	b7 e2       	ldi	r27, 0x27	; 39
 79a:	36 d2       	rcall	.+1132   	; 0xc08 <__muluhisi3>
 79c:	c6 0e       	add	r12, r22
 79e:	d7 1e       	adc	r13, r23
 7a0:	e8 1e       	adc	r14, r24
 7a2:	f9 1e       	adc	r15, r25
 7a4:	4d 89       	ldd	r20, Y+21	; 0x15
 7a6:	5e 89       	ldd	r21, Y+22	; 0x16
 7a8:	6f 89       	ldd	r22, Y+23	; 0x17
 7aa:	78 8d       	ldd	r23, Y+24	; 0x18
 7ac:	44 0f       	add	r20, r20
 7ae:	55 1f       	adc	r21, r21
 7b0:	66 1f       	adc	r22, r22
 7b2:	77 1f       	adc	r23, r23
 7b4:	8a 01       	movw	r16, r20
 7b6:	9b 01       	movw	r18, r22
 7b8:	00 0f       	add	r16, r16
 7ba:	11 1f       	adc	r17, r17
 7bc:	22 1f       	adc	r18, r18
 7be:	33 1f       	adc	r19, r19
 7c0:	00 0f       	add	r16, r16
 7c2:	11 1f       	adc	r17, r17
 7c4:	22 1f       	adc	r18, r18
 7c6:	33 1f       	adc	r19, r19
 7c8:	40 0f       	add	r20, r16
 7ca:	51 1f       	adc	r21, r17
 7cc:	62 1f       	adc	r22, r18
 7ce:	73 1f       	adc	r23, r19
 7d0:	c4 0e       	add	r12, r20
 7d2:	d5 1e       	adc	r13, r21
 7d4:	e6 1e       	adc	r14, r22
 7d6:	f7 1e       	adc	r15, r23
 7d8:	29 89       	ldd	r18, Y+17	; 0x11
 7da:	3a 89       	ldd	r19, Y+18	; 0x12
 7dc:	4b 89       	ldd	r20, Y+19	; 0x13
 7de:	5c 89       	ldd	r21, Y+20	; 0x14
 7e0:	a4 e6       	ldi	r26, 0x64	; 100
 7e2:	b0 e0       	ldi	r27, 0x00	; 0
 7e4:	11 d2       	rcall	.+1058   	; 0xc08 <__muluhisi3>
 7e6:	dc 01       	movw	r26, r24
 7e8:	cb 01       	movw	r24, r22
 7ea:	8c 0d       	add	r24, r12
 7ec:	9d 1d       	adc	r25, r13
 7ee:	ae 1d       	adc	r26, r14
 7f0:	bf 1d       	adc	r27, r15
}
 7f2:	6c 96       	adiw	r28, 0x1c	; 28
 7f4:	0f b6       	in	r0, 0x3f	; 63
 7f6:	f8 94       	cli
 7f8:	de bf       	out	0x3e, r29	; 62
 7fa:	0f be       	out	0x3f, r0	; 63
 7fc:	cd bf       	out	0x3d, r28	; 61
 7fe:	df 91       	pop	r29
 800:	cf 91       	pop	r28
 802:	1f 91       	pop	r17
 804:	0f 91       	pop	r16
 806:	ff 90       	pop	r15
 808:	ef 90       	pop	r14
 80a:	df 90       	pop	r13
 80c:	cf 90       	pop	r12
 80e:	08 95       	ret

00000810 <__vector_54>:


ISR(USART3_RX_vect)
{
 810:	1f 92       	push	r1
 812:	0f 92       	push	r0
 814:	0f b6       	in	r0, 0x3f	; 63
 816:	0f 92       	push	r0
 818:	11 24       	eor	r1, r1
 81a:	0b b6       	in	r0, 0x3b	; 59
 81c:	0f 92       	push	r0
 81e:	8f 93       	push	r24
 820:	9f 93       	push	r25
 822:	ef 93       	push	r30
 824:	ff 93       	push	r31
	UART_update = 1;
 826:	81 e0       	ldi	r24, 0x01	; 1
 828:	90 e0       	ldi	r25, 0x00	; 0
 82a:	90 93 b4 02 	sts	0x02B4, r25	; 0x8002b4 <UART_update+0x1>
 82e:	80 93 b3 02 	sts	0x02B3, r24	; 0x8002b3 <UART_update>
	rx_ch = UDR3;						//Set receive channel to UDR3
 832:	80 91 36 01 	lds	r24, 0x0136	; 0x800136 <__TEXT_REGION_LENGTH__+0x700136>
 836:	80 93 98 02 	sts	0x0298, r24	; 0x800298 <__data_end>
	if(rx_ch == 0x0D)
 83a:	80 91 98 02 	lds	r24, 0x0298	; 0x800298 <__data_end>
 83e:	8d 30       	cpi	r24, 0x0D	; 13
 840:	49 f4       	brne	.+18     	; 0x854 <__vector_54+0x44>
	{
		rx_buffer[i] = '\0';
 842:	e0 91 b2 02 	lds	r30, 0x02B2	; 0x8002b2 <i>
 846:	f0 e0       	ldi	r31, 0x00	; 0
 848:	e7 56       	subi	r30, 0x67	; 103
 84a:	fd 4f       	sbci	r31, 0xFD	; 253
 84c:	10 82       	st	Z, r1
		i = 0;
 84e:	10 92 b2 02 	sts	0x02B2, r1	; 0x8002b2 <i>
 852:	0d c0       	rjmp	.+26     	; 0x86e <__vector_54+0x5e>
		//UART3_Out('A');
		
	}
	else
	{
		rx_buffer[i] = rx_ch;
 854:	e0 91 b2 02 	lds	r30, 0x02B2	; 0x8002b2 <i>
 858:	f0 e0       	ldi	r31, 0x00	; 0
 85a:	80 91 98 02 	lds	r24, 0x0298	; 0x800298 <__data_end>
 85e:	e7 56       	subi	r30, 0x67	; 103
 860:	fd 4f       	sbci	r31, 0xFD	; 253
 862:	80 83       	st	Z, r24
		i++;
 864:	80 91 b2 02 	lds	r24, 0x02B2	; 0x8002b2 <i>
 868:	8f 5f       	subi	r24, 0xFF	; 255
 86a:	80 93 b2 02 	sts	0x02B2, r24	; 0x8002b2 <i>
		//UART3_Out('B');
	}		
	
}
 86e:	ff 91       	pop	r31
 870:	ef 91       	pop	r30
 872:	9f 91       	pop	r25
 874:	8f 91       	pop	r24
 876:	0f 90       	pop	r0
 878:	0b be       	out	0x3b, r0	; 59
 87a:	0f 90       	pop	r0
 87c:	0f be       	out	0x3f, r0	; 63
 87e:	0f 90       	pop	r0
 880:	1f 90       	pop	r1
 882:	18 95       	reti

00000884 <__subsf3>:
 884:	50 58       	subi	r21, 0x80	; 128

00000886 <__addsf3>:
 886:	bb 27       	eor	r27, r27
 888:	aa 27       	eor	r26, r26
 88a:	0e d0       	rcall	.+28     	; 0x8a8 <__addsf3x>
 88c:	e0 c0       	rjmp	.+448    	; 0xa4e <__fp_round>
 88e:	d1 d0       	rcall	.+418    	; 0xa32 <__fp_pscA>
 890:	30 f0       	brcs	.+12     	; 0x89e <__addsf3+0x18>
 892:	d6 d0       	rcall	.+428    	; 0xa40 <__fp_pscB>
 894:	20 f0       	brcs	.+8      	; 0x89e <__addsf3+0x18>
 896:	31 f4       	brne	.+12     	; 0x8a4 <__addsf3+0x1e>
 898:	9f 3f       	cpi	r25, 0xFF	; 255
 89a:	11 f4       	brne	.+4      	; 0x8a0 <__addsf3+0x1a>
 89c:	1e f4       	brtc	.+6      	; 0x8a4 <__addsf3+0x1e>
 89e:	c6 c0       	rjmp	.+396    	; 0xa2c <__fp_nan>
 8a0:	0e f4       	brtc	.+2      	; 0x8a4 <__addsf3+0x1e>
 8a2:	e0 95       	com	r30
 8a4:	e7 fb       	bst	r30, 7
 8a6:	bc c0       	rjmp	.+376    	; 0xa20 <__fp_inf>

000008a8 <__addsf3x>:
 8a8:	e9 2f       	mov	r30, r25
 8aa:	e2 d0       	rcall	.+452    	; 0xa70 <__fp_split3>
 8ac:	80 f3       	brcs	.-32     	; 0x88e <__addsf3+0x8>
 8ae:	ba 17       	cp	r27, r26
 8b0:	62 07       	cpc	r22, r18
 8b2:	73 07       	cpc	r23, r19
 8b4:	84 07       	cpc	r24, r20
 8b6:	95 07       	cpc	r25, r21
 8b8:	18 f0       	brcs	.+6      	; 0x8c0 <__addsf3x+0x18>
 8ba:	71 f4       	brne	.+28     	; 0x8d8 <__addsf3x+0x30>
 8bc:	9e f5       	brtc	.+102    	; 0x924 <__addsf3x+0x7c>
 8be:	fa c0       	rjmp	.+500    	; 0xab4 <__fp_zero>
 8c0:	0e f4       	brtc	.+2      	; 0x8c4 <__addsf3x+0x1c>
 8c2:	e0 95       	com	r30
 8c4:	0b 2e       	mov	r0, r27
 8c6:	ba 2f       	mov	r27, r26
 8c8:	a0 2d       	mov	r26, r0
 8ca:	0b 01       	movw	r0, r22
 8cc:	b9 01       	movw	r22, r18
 8ce:	90 01       	movw	r18, r0
 8d0:	0c 01       	movw	r0, r24
 8d2:	ca 01       	movw	r24, r20
 8d4:	a0 01       	movw	r20, r0
 8d6:	11 24       	eor	r1, r1
 8d8:	ff 27       	eor	r31, r31
 8da:	59 1b       	sub	r21, r25
 8dc:	99 f0       	breq	.+38     	; 0x904 <__addsf3x+0x5c>
 8de:	59 3f       	cpi	r21, 0xF9	; 249
 8e0:	50 f4       	brcc	.+20     	; 0x8f6 <__addsf3x+0x4e>
 8e2:	50 3e       	cpi	r21, 0xE0	; 224
 8e4:	68 f1       	brcs	.+90     	; 0x940 <__addsf3x+0x98>
 8e6:	1a 16       	cp	r1, r26
 8e8:	f0 40       	sbci	r31, 0x00	; 0
 8ea:	a2 2f       	mov	r26, r18
 8ec:	23 2f       	mov	r18, r19
 8ee:	34 2f       	mov	r19, r20
 8f0:	44 27       	eor	r20, r20
 8f2:	58 5f       	subi	r21, 0xF8	; 248
 8f4:	f3 cf       	rjmp	.-26     	; 0x8dc <__addsf3x+0x34>
 8f6:	46 95       	lsr	r20
 8f8:	37 95       	ror	r19
 8fa:	27 95       	ror	r18
 8fc:	a7 95       	ror	r26
 8fe:	f0 40       	sbci	r31, 0x00	; 0
 900:	53 95       	inc	r21
 902:	c9 f7       	brne	.-14     	; 0x8f6 <__addsf3x+0x4e>
 904:	7e f4       	brtc	.+30     	; 0x924 <__addsf3x+0x7c>
 906:	1f 16       	cp	r1, r31
 908:	ba 0b       	sbc	r27, r26
 90a:	62 0b       	sbc	r22, r18
 90c:	73 0b       	sbc	r23, r19
 90e:	84 0b       	sbc	r24, r20
 910:	ba f0       	brmi	.+46     	; 0x940 <__addsf3x+0x98>
 912:	91 50       	subi	r25, 0x01	; 1
 914:	a1 f0       	breq	.+40     	; 0x93e <__addsf3x+0x96>
 916:	ff 0f       	add	r31, r31
 918:	bb 1f       	adc	r27, r27
 91a:	66 1f       	adc	r22, r22
 91c:	77 1f       	adc	r23, r23
 91e:	88 1f       	adc	r24, r24
 920:	c2 f7       	brpl	.-16     	; 0x912 <__addsf3x+0x6a>
 922:	0e c0       	rjmp	.+28     	; 0x940 <__addsf3x+0x98>
 924:	ba 0f       	add	r27, r26
 926:	62 1f       	adc	r22, r18
 928:	73 1f       	adc	r23, r19
 92a:	84 1f       	adc	r24, r20
 92c:	48 f4       	brcc	.+18     	; 0x940 <__addsf3x+0x98>
 92e:	87 95       	ror	r24
 930:	77 95       	ror	r23
 932:	67 95       	ror	r22
 934:	b7 95       	ror	r27
 936:	f7 95       	ror	r31
 938:	9e 3f       	cpi	r25, 0xFE	; 254
 93a:	08 f0       	brcs	.+2      	; 0x93e <__addsf3x+0x96>
 93c:	b3 cf       	rjmp	.-154    	; 0x8a4 <__addsf3+0x1e>
 93e:	93 95       	inc	r25
 940:	88 0f       	add	r24, r24
 942:	08 f0       	brcs	.+2      	; 0x946 <__addsf3x+0x9e>
 944:	99 27       	eor	r25, r25
 946:	ee 0f       	add	r30, r30
 948:	97 95       	ror	r25
 94a:	87 95       	ror	r24
 94c:	08 95       	ret

0000094e <__fixunssfsi>:
 94e:	98 d0       	rcall	.+304    	; 0xa80 <__fp_splitA>
 950:	88 f0       	brcs	.+34     	; 0x974 <__fixunssfsi+0x26>
 952:	9f 57       	subi	r25, 0x7F	; 127
 954:	90 f0       	brcs	.+36     	; 0x97a <__fixunssfsi+0x2c>
 956:	b9 2f       	mov	r27, r25
 958:	99 27       	eor	r25, r25
 95a:	b7 51       	subi	r27, 0x17	; 23
 95c:	a0 f0       	brcs	.+40     	; 0x986 <__fixunssfsi+0x38>
 95e:	d1 f0       	breq	.+52     	; 0x994 <__fixunssfsi+0x46>
 960:	66 0f       	add	r22, r22
 962:	77 1f       	adc	r23, r23
 964:	88 1f       	adc	r24, r24
 966:	99 1f       	adc	r25, r25
 968:	1a f0       	brmi	.+6      	; 0x970 <__fixunssfsi+0x22>
 96a:	ba 95       	dec	r27
 96c:	c9 f7       	brne	.-14     	; 0x960 <__fixunssfsi+0x12>
 96e:	12 c0       	rjmp	.+36     	; 0x994 <__fixunssfsi+0x46>
 970:	b1 30       	cpi	r27, 0x01	; 1
 972:	81 f0       	breq	.+32     	; 0x994 <__fixunssfsi+0x46>
 974:	9f d0       	rcall	.+318    	; 0xab4 <__fp_zero>
 976:	b1 e0       	ldi	r27, 0x01	; 1
 978:	08 95       	ret
 97a:	9c c0       	rjmp	.+312    	; 0xab4 <__fp_zero>
 97c:	67 2f       	mov	r22, r23
 97e:	78 2f       	mov	r23, r24
 980:	88 27       	eor	r24, r24
 982:	b8 5f       	subi	r27, 0xF8	; 248
 984:	39 f0       	breq	.+14     	; 0x994 <__fixunssfsi+0x46>
 986:	b9 3f       	cpi	r27, 0xF9	; 249
 988:	cc f3       	brlt	.-14     	; 0x97c <__fixunssfsi+0x2e>
 98a:	86 95       	lsr	r24
 98c:	77 95       	ror	r23
 98e:	67 95       	ror	r22
 990:	b3 95       	inc	r27
 992:	d9 f7       	brne	.-10     	; 0x98a <__fixunssfsi+0x3c>
 994:	3e f4       	brtc	.+14     	; 0x9a4 <__fixunssfsi+0x56>
 996:	90 95       	com	r25
 998:	80 95       	com	r24
 99a:	70 95       	com	r23
 99c:	61 95       	neg	r22
 99e:	7f 4f       	sbci	r23, 0xFF	; 255
 9a0:	8f 4f       	sbci	r24, 0xFF	; 255
 9a2:	9f 4f       	sbci	r25, 0xFF	; 255
 9a4:	08 95       	ret

000009a6 <__floatunsisf>:
 9a6:	e8 94       	clt
 9a8:	09 c0       	rjmp	.+18     	; 0x9bc <__floatsisf+0x12>

000009aa <__floatsisf>:
 9aa:	97 fb       	bst	r25, 7
 9ac:	3e f4       	brtc	.+14     	; 0x9bc <__floatsisf+0x12>
 9ae:	90 95       	com	r25
 9b0:	80 95       	com	r24
 9b2:	70 95       	com	r23
 9b4:	61 95       	neg	r22
 9b6:	7f 4f       	sbci	r23, 0xFF	; 255
 9b8:	8f 4f       	sbci	r24, 0xFF	; 255
 9ba:	9f 4f       	sbci	r25, 0xFF	; 255
 9bc:	99 23       	and	r25, r25
 9be:	a9 f0       	breq	.+42     	; 0x9ea <__floatsisf+0x40>
 9c0:	f9 2f       	mov	r31, r25
 9c2:	96 e9       	ldi	r25, 0x96	; 150
 9c4:	bb 27       	eor	r27, r27
 9c6:	93 95       	inc	r25
 9c8:	f6 95       	lsr	r31
 9ca:	87 95       	ror	r24
 9cc:	77 95       	ror	r23
 9ce:	67 95       	ror	r22
 9d0:	b7 95       	ror	r27
 9d2:	f1 11       	cpse	r31, r1
 9d4:	f8 cf       	rjmp	.-16     	; 0x9c6 <__floatsisf+0x1c>
 9d6:	fa f4       	brpl	.+62     	; 0xa16 <__floatsisf+0x6c>
 9d8:	bb 0f       	add	r27, r27
 9da:	11 f4       	brne	.+4      	; 0x9e0 <__floatsisf+0x36>
 9dc:	60 ff       	sbrs	r22, 0
 9de:	1b c0       	rjmp	.+54     	; 0xa16 <__floatsisf+0x6c>
 9e0:	6f 5f       	subi	r22, 0xFF	; 255
 9e2:	7f 4f       	sbci	r23, 0xFF	; 255
 9e4:	8f 4f       	sbci	r24, 0xFF	; 255
 9e6:	9f 4f       	sbci	r25, 0xFF	; 255
 9e8:	16 c0       	rjmp	.+44     	; 0xa16 <__floatsisf+0x6c>
 9ea:	88 23       	and	r24, r24
 9ec:	11 f0       	breq	.+4      	; 0x9f2 <__floatsisf+0x48>
 9ee:	96 e9       	ldi	r25, 0x96	; 150
 9f0:	11 c0       	rjmp	.+34     	; 0xa14 <__floatsisf+0x6a>
 9f2:	77 23       	and	r23, r23
 9f4:	21 f0       	breq	.+8      	; 0x9fe <__floatsisf+0x54>
 9f6:	9e e8       	ldi	r25, 0x8E	; 142
 9f8:	87 2f       	mov	r24, r23
 9fa:	76 2f       	mov	r23, r22
 9fc:	05 c0       	rjmp	.+10     	; 0xa08 <__floatsisf+0x5e>
 9fe:	66 23       	and	r22, r22
 a00:	71 f0       	breq	.+28     	; 0xa1e <__floatsisf+0x74>
 a02:	96 e8       	ldi	r25, 0x86	; 134
 a04:	86 2f       	mov	r24, r22
 a06:	70 e0       	ldi	r23, 0x00	; 0
 a08:	60 e0       	ldi	r22, 0x00	; 0
 a0a:	2a f0       	brmi	.+10     	; 0xa16 <__floatsisf+0x6c>
 a0c:	9a 95       	dec	r25
 a0e:	66 0f       	add	r22, r22
 a10:	77 1f       	adc	r23, r23
 a12:	88 1f       	adc	r24, r24
 a14:	da f7       	brpl	.-10     	; 0xa0c <__floatsisf+0x62>
 a16:	88 0f       	add	r24, r24
 a18:	96 95       	lsr	r25
 a1a:	87 95       	ror	r24
 a1c:	97 f9       	bld	r25, 7
 a1e:	08 95       	ret

00000a20 <__fp_inf>:
 a20:	97 f9       	bld	r25, 7
 a22:	9f 67       	ori	r25, 0x7F	; 127
 a24:	80 e8       	ldi	r24, 0x80	; 128
 a26:	70 e0       	ldi	r23, 0x00	; 0
 a28:	60 e0       	ldi	r22, 0x00	; 0
 a2a:	08 95       	ret

00000a2c <__fp_nan>:
 a2c:	9f ef       	ldi	r25, 0xFF	; 255
 a2e:	80 ec       	ldi	r24, 0xC0	; 192
 a30:	08 95       	ret

00000a32 <__fp_pscA>:
 a32:	00 24       	eor	r0, r0
 a34:	0a 94       	dec	r0
 a36:	16 16       	cp	r1, r22
 a38:	17 06       	cpc	r1, r23
 a3a:	18 06       	cpc	r1, r24
 a3c:	09 06       	cpc	r0, r25
 a3e:	08 95       	ret

00000a40 <__fp_pscB>:
 a40:	00 24       	eor	r0, r0
 a42:	0a 94       	dec	r0
 a44:	12 16       	cp	r1, r18
 a46:	13 06       	cpc	r1, r19
 a48:	14 06       	cpc	r1, r20
 a4a:	05 06       	cpc	r0, r21
 a4c:	08 95       	ret

00000a4e <__fp_round>:
 a4e:	09 2e       	mov	r0, r25
 a50:	03 94       	inc	r0
 a52:	00 0c       	add	r0, r0
 a54:	11 f4       	brne	.+4      	; 0xa5a <__fp_round+0xc>
 a56:	88 23       	and	r24, r24
 a58:	52 f0       	brmi	.+20     	; 0xa6e <__fp_round+0x20>
 a5a:	bb 0f       	add	r27, r27
 a5c:	40 f4       	brcc	.+16     	; 0xa6e <__fp_round+0x20>
 a5e:	bf 2b       	or	r27, r31
 a60:	11 f4       	brne	.+4      	; 0xa66 <__fp_round+0x18>
 a62:	60 ff       	sbrs	r22, 0
 a64:	04 c0       	rjmp	.+8      	; 0xa6e <__fp_round+0x20>
 a66:	6f 5f       	subi	r22, 0xFF	; 255
 a68:	7f 4f       	sbci	r23, 0xFF	; 255
 a6a:	8f 4f       	sbci	r24, 0xFF	; 255
 a6c:	9f 4f       	sbci	r25, 0xFF	; 255
 a6e:	08 95       	ret

00000a70 <__fp_split3>:
 a70:	57 fd       	sbrc	r21, 7
 a72:	90 58       	subi	r25, 0x80	; 128
 a74:	44 0f       	add	r20, r20
 a76:	55 1f       	adc	r21, r21
 a78:	59 f0       	breq	.+22     	; 0xa90 <__fp_splitA+0x10>
 a7a:	5f 3f       	cpi	r21, 0xFF	; 255
 a7c:	71 f0       	breq	.+28     	; 0xa9a <__fp_splitA+0x1a>
 a7e:	47 95       	ror	r20

00000a80 <__fp_splitA>:
 a80:	88 0f       	add	r24, r24
 a82:	97 fb       	bst	r25, 7
 a84:	99 1f       	adc	r25, r25
 a86:	61 f0       	breq	.+24     	; 0xaa0 <__fp_splitA+0x20>
 a88:	9f 3f       	cpi	r25, 0xFF	; 255
 a8a:	79 f0       	breq	.+30     	; 0xaaa <__fp_splitA+0x2a>
 a8c:	87 95       	ror	r24
 a8e:	08 95       	ret
 a90:	12 16       	cp	r1, r18
 a92:	13 06       	cpc	r1, r19
 a94:	14 06       	cpc	r1, r20
 a96:	55 1f       	adc	r21, r21
 a98:	f2 cf       	rjmp	.-28     	; 0xa7e <__fp_split3+0xe>
 a9a:	46 95       	lsr	r20
 a9c:	f1 df       	rcall	.-30     	; 0xa80 <__fp_splitA>
 a9e:	08 c0       	rjmp	.+16     	; 0xab0 <__fp_splitA+0x30>
 aa0:	16 16       	cp	r1, r22
 aa2:	17 06       	cpc	r1, r23
 aa4:	18 06       	cpc	r1, r24
 aa6:	99 1f       	adc	r25, r25
 aa8:	f1 cf       	rjmp	.-30     	; 0xa8c <__fp_splitA+0xc>
 aaa:	86 95       	lsr	r24
 aac:	71 05       	cpc	r23, r1
 aae:	61 05       	cpc	r22, r1
 ab0:	08 94       	sec
 ab2:	08 95       	ret

00000ab4 <__fp_zero>:
 ab4:	e8 94       	clt

00000ab6 <__fp_szero>:
 ab6:	bb 27       	eor	r27, r27
 ab8:	66 27       	eor	r22, r22
 aba:	77 27       	eor	r23, r23
 abc:	cb 01       	movw	r24, r22
 abe:	97 f9       	bld	r25, 7
 ac0:	08 95       	ret

00000ac2 <__mulsf3>:
 ac2:	0b d0       	rcall	.+22     	; 0xada <__mulsf3x>
 ac4:	c4 cf       	rjmp	.-120    	; 0xa4e <__fp_round>
 ac6:	b5 df       	rcall	.-150    	; 0xa32 <__fp_pscA>
 ac8:	28 f0       	brcs	.+10     	; 0xad4 <__mulsf3+0x12>
 aca:	ba df       	rcall	.-140    	; 0xa40 <__fp_pscB>
 acc:	18 f0       	brcs	.+6      	; 0xad4 <__mulsf3+0x12>
 ace:	95 23       	and	r25, r21
 ad0:	09 f0       	breq	.+2      	; 0xad4 <__mulsf3+0x12>
 ad2:	a6 cf       	rjmp	.-180    	; 0xa20 <__fp_inf>
 ad4:	ab cf       	rjmp	.-170    	; 0xa2c <__fp_nan>
 ad6:	11 24       	eor	r1, r1
 ad8:	ee cf       	rjmp	.-36     	; 0xab6 <__fp_szero>

00000ada <__mulsf3x>:
 ada:	ca df       	rcall	.-108    	; 0xa70 <__fp_split3>
 adc:	a0 f3       	brcs	.-24     	; 0xac6 <__mulsf3+0x4>

00000ade <__mulsf3_pse>:
 ade:	95 9f       	mul	r25, r21
 ae0:	d1 f3       	breq	.-12     	; 0xad6 <__mulsf3+0x14>
 ae2:	95 0f       	add	r25, r21
 ae4:	50 e0       	ldi	r21, 0x00	; 0
 ae6:	55 1f       	adc	r21, r21
 ae8:	62 9f       	mul	r22, r18
 aea:	f0 01       	movw	r30, r0
 aec:	72 9f       	mul	r23, r18
 aee:	bb 27       	eor	r27, r27
 af0:	f0 0d       	add	r31, r0
 af2:	b1 1d       	adc	r27, r1
 af4:	63 9f       	mul	r22, r19
 af6:	aa 27       	eor	r26, r26
 af8:	f0 0d       	add	r31, r0
 afa:	b1 1d       	adc	r27, r1
 afc:	aa 1f       	adc	r26, r26
 afe:	64 9f       	mul	r22, r20
 b00:	66 27       	eor	r22, r22
 b02:	b0 0d       	add	r27, r0
 b04:	a1 1d       	adc	r26, r1
 b06:	66 1f       	adc	r22, r22
 b08:	82 9f       	mul	r24, r18
 b0a:	22 27       	eor	r18, r18
 b0c:	b0 0d       	add	r27, r0
 b0e:	a1 1d       	adc	r26, r1
 b10:	62 1f       	adc	r22, r18
 b12:	73 9f       	mul	r23, r19
 b14:	b0 0d       	add	r27, r0
 b16:	a1 1d       	adc	r26, r1
 b18:	62 1f       	adc	r22, r18
 b1a:	83 9f       	mul	r24, r19
 b1c:	a0 0d       	add	r26, r0
 b1e:	61 1d       	adc	r22, r1
 b20:	22 1f       	adc	r18, r18
 b22:	74 9f       	mul	r23, r20
 b24:	33 27       	eor	r19, r19
 b26:	a0 0d       	add	r26, r0
 b28:	61 1d       	adc	r22, r1
 b2a:	23 1f       	adc	r18, r19
 b2c:	84 9f       	mul	r24, r20
 b2e:	60 0d       	add	r22, r0
 b30:	21 1d       	adc	r18, r1
 b32:	82 2f       	mov	r24, r18
 b34:	76 2f       	mov	r23, r22
 b36:	6a 2f       	mov	r22, r26
 b38:	11 24       	eor	r1, r1
 b3a:	9f 57       	subi	r25, 0x7F	; 127
 b3c:	50 40       	sbci	r21, 0x00	; 0
 b3e:	8a f0       	brmi	.+34     	; 0xb62 <__mulsf3_pse+0x84>
 b40:	e1 f0       	breq	.+56     	; 0xb7a <__mulsf3_pse+0x9c>
 b42:	88 23       	and	r24, r24
 b44:	4a f0       	brmi	.+18     	; 0xb58 <__mulsf3_pse+0x7a>
 b46:	ee 0f       	add	r30, r30
 b48:	ff 1f       	adc	r31, r31
 b4a:	bb 1f       	adc	r27, r27
 b4c:	66 1f       	adc	r22, r22
 b4e:	77 1f       	adc	r23, r23
 b50:	88 1f       	adc	r24, r24
 b52:	91 50       	subi	r25, 0x01	; 1
 b54:	50 40       	sbci	r21, 0x00	; 0
 b56:	a9 f7       	brne	.-22     	; 0xb42 <__mulsf3_pse+0x64>
 b58:	9e 3f       	cpi	r25, 0xFE	; 254
 b5a:	51 05       	cpc	r21, r1
 b5c:	70 f0       	brcs	.+28     	; 0xb7a <__mulsf3_pse+0x9c>
 b5e:	60 cf       	rjmp	.-320    	; 0xa20 <__fp_inf>
 b60:	aa cf       	rjmp	.-172    	; 0xab6 <__fp_szero>
 b62:	5f 3f       	cpi	r21, 0xFF	; 255
 b64:	ec f3       	brlt	.-6      	; 0xb60 <__mulsf3_pse+0x82>
 b66:	98 3e       	cpi	r25, 0xE8	; 232
 b68:	dc f3       	brlt	.-10     	; 0xb60 <__mulsf3_pse+0x82>
 b6a:	86 95       	lsr	r24
 b6c:	77 95       	ror	r23
 b6e:	67 95       	ror	r22
 b70:	b7 95       	ror	r27
 b72:	f7 95       	ror	r31
 b74:	e7 95       	ror	r30
 b76:	9f 5f       	subi	r25, 0xFF	; 255
 b78:	c1 f7       	brne	.-16     	; 0xb6a <__mulsf3_pse+0x8c>
 b7a:	fe 2b       	or	r31, r30
 b7c:	88 0f       	add	r24, r24
 b7e:	91 1d       	adc	r25, r1
 b80:	96 95       	lsr	r25
 b82:	87 95       	ror	r24
 b84:	97 f9       	bld	r25, 7
 b86:	08 95       	ret

00000b88 <__mulsi3>:
 b88:	db 01       	movw	r26, r22
 b8a:	8f 93       	push	r24
 b8c:	9f 93       	push	r25
 b8e:	3c d0       	rcall	.+120    	; 0xc08 <__muluhisi3>
 b90:	bf 91       	pop	r27
 b92:	af 91       	pop	r26
 b94:	a2 9f       	mul	r26, r18
 b96:	80 0d       	add	r24, r0
 b98:	91 1d       	adc	r25, r1
 b9a:	a3 9f       	mul	r26, r19
 b9c:	90 0d       	add	r25, r0
 b9e:	b2 9f       	mul	r27, r18
 ba0:	90 0d       	add	r25, r0
 ba2:	11 24       	eor	r1, r1
 ba4:	08 95       	ret

00000ba6 <__udivmodsi4>:
 ba6:	a1 e2       	ldi	r26, 0x21	; 33
 ba8:	1a 2e       	mov	r1, r26
 baa:	aa 1b       	sub	r26, r26
 bac:	bb 1b       	sub	r27, r27
 bae:	fd 01       	movw	r30, r26
 bb0:	0d c0       	rjmp	.+26     	; 0xbcc <__udivmodsi4_ep>

00000bb2 <__udivmodsi4_loop>:
 bb2:	aa 1f       	adc	r26, r26
 bb4:	bb 1f       	adc	r27, r27
 bb6:	ee 1f       	adc	r30, r30
 bb8:	ff 1f       	adc	r31, r31
 bba:	a2 17       	cp	r26, r18
 bbc:	b3 07       	cpc	r27, r19
 bbe:	e4 07       	cpc	r30, r20
 bc0:	f5 07       	cpc	r31, r21
 bc2:	20 f0       	brcs	.+8      	; 0xbcc <__udivmodsi4_ep>
 bc4:	a2 1b       	sub	r26, r18
 bc6:	b3 0b       	sbc	r27, r19
 bc8:	e4 0b       	sbc	r30, r20
 bca:	f5 0b       	sbc	r31, r21

00000bcc <__udivmodsi4_ep>:
 bcc:	66 1f       	adc	r22, r22
 bce:	77 1f       	adc	r23, r23
 bd0:	88 1f       	adc	r24, r24
 bd2:	99 1f       	adc	r25, r25
 bd4:	1a 94       	dec	r1
 bd6:	69 f7       	brne	.-38     	; 0xbb2 <__udivmodsi4_loop>
 bd8:	60 95       	com	r22
 bda:	70 95       	com	r23
 bdc:	80 95       	com	r24
 bde:	90 95       	com	r25
 be0:	9b 01       	movw	r18, r22
 be2:	ac 01       	movw	r20, r24
 be4:	bd 01       	movw	r22, r26
 be6:	cf 01       	movw	r24, r30
 be8:	08 95       	ret

00000bea <__umulhisi3>:
 bea:	a2 9f       	mul	r26, r18
 bec:	b0 01       	movw	r22, r0
 bee:	b3 9f       	mul	r27, r19
 bf0:	c0 01       	movw	r24, r0
 bf2:	a3 9f       	mul	r26, r19
 bf4:	70 0d       	add	r23, r0
 bf6:	81 1d       	adc	r24, r1
 bf8:	11 24       	eor	r1, r1
 bfa:	91 1d       	adc	r25, r1
 bfc:	b2 9f       	mul	r27, r18
 bfe:	70 0d       	add	r23, r0
 c00:	81 1d       	adc	r24, r1
 c02:	11 24       	eor	r1, r1
 c04:	91 1d       	adc	r25, r1
 c06:	08 95       	ret

00000c08 <__muluhisi3>:
 c08:	f0 df       	rcall	.-32     	; 0xbea <__umulhisi3>
 c0a:	a5 9f       	mul	r26, r21
 c0c:	90 0d       	add	r25, r0
 c0e:	b4 9f       	mul	r27, r20
 c10:	90 0d       	add	r25, r0
 c12:	a4 9f       	mul	r26, r20
 c14:	80 0d       	add	r24, r0
 c16:	91 1d       	adc	r25, r1
 c18:	11 24       	eor	r1, r1
 c1a:	08 95       	ret

00000c1c <_exit>:
 c1c:	f8 94       	cli

00000c1e <__stop_program>:
 c1e:	ff cf       	rjmp	.-2      	; 0xc1e <__stop_program>
